
.pioenvs/bluepill_f103c8/firmware.elf:     file format elf32-littlearm

SYMBOL TABLE:
08000000 l    d  .text	00000000 .text
080071c4 l    d  .preinit_array	00000000 .preinit_array
080071c4 l    d  .init_array	00000000 .init_array
080071c4 l    d  .fini_array	00000000 .fini_array
20000000 l    d  .data	00000000 .data
20000000 l    d  .bss	00000000 .bss
00000000 l    d  .debug_info	00000000 .debug_info
00000000 l    d  .debug_abbrev	00000000 .debug_abbrev
00000000 l    d  .debug_loc	00000000 .debug_loc
00000000 l    d  .debug_aranges	00000000 .debug_aranges
00000000 l    d  .debug_ranges	00000000 .debug_ranges
00000000 l    d  .debug_line	00000000 .debug_line
00000000 l    d  .debug_str	00000000 .debug_str
00000000 l    d  .comment	00000000 .comment
00000000 l    d  .ARM.attributes	00000000 .ARM.attributes
00000000 l    d  .debug_frame	00000000 .debug_frame
00000000 l    df *ABS*	00000000 vector.c
00000000 l    df *ABS*	00000000 main.c
00000000 l    df *ABS*	00000000 logger.cpp
08003eb0 l     F .text	00000054 _ZL12debug_appendPKcj
20000034 l     O .bss	00000001 _ZL10logEnabled
20000035 l     O .bss	00000201 _ZL11debugBuffer
20000238 l     O .bss	00000010 _ZL12output_funcs
20000248 l     O .bss	00000002 _ZL17debugBufferLength
00000000 l    df *ABS*	00000000 unity.c
08004052 l     F .text	000000e4 UnityFloatsWithin
08004136 l     F .text	0000011c UnityDoublesWithin
080042d0 l     F .text	0000004c UnityPrint.part.0
08004324 l     F .text	00000030 UnityTestResultsBegin
08004354 l     F .text	00000024 UnityTestResultsFailBegin
08004378 l     F .text	00000050 UnityAddMsgIfSpecified
08007159 l     O .text	00000018 UnityStrBreaker
08007171 l     O .text	0000000a UnityStrDetail1Name
0800717b l     O .text	0000000b UnityStrDetail2Name
08007186 l     O .text	0000000b UnityStrExpected
08007191 l     O .text	00000005 UnityStrFail
08007196 l     O .text	00000003 UnityStrOk
08007199 l     O .text	00000005 UnityStrPass
0800719e l     O .text	0000000b UnityStrResultsFailures
080071a9 l     O .text	0000000a UnityStrResultsIgnored
080071b3 l     O .text	00000008 UnityStrResultsTests
080071bb l     O .text	00000003 UnityStrSpacer
080071be l     O .text	00000006 UnityStrWas
00000000 l    df *ABS*	00000000 functions.c
2000024a l     O .bss	0000002e float_usage
00000000 l    df *ABS*	00000000 lib_a-memcpy.o
00000000 l    df *ABS*	00000000 memset.c
00000000 l    df *ABS*	00000000 strcpy.c
00000000 l    df *ABS*	00000000 strlen-stub.c
00000000 l    df *ABS*	00000000 _arm_addsubdf3.o
00000000 l    df *ABS*	00000000 _arm_muldivdf3.o
00000000 l    df *ABS*	00000000 _arm_cmpdf2.o
00000000 l    df *ABS*	00000000 _arm_unorddf2.o
00000000 l    df *ABS*	00000000 _arm_fixdfsi.o
00000000 l    df *ABS*	00000000 _arm_truncdfsf2.o
00000000 l    df *ABS*	00000000 _arm_addsubsf3.o
00000000 l    df *ABS*	00000000 _arm_muldivsf3.o
00000000 l    df *ABS*	00000000 _arm_cmpsf2.o
00000000 l    df *ABS*	00000000 qfplib.o
00000001 l       *ABS*	00000000 include_faster
00000001 l       *ABS*	00000000 include_conversions
00000001 l       *ABS*	00000000 include_scientific
080069cc l       .text	00000000 xchxy
080069d4 l       .text	00000000 unpackxy
080069e2 l       .text	00000000 unpackx
08006a10 l       .text	00000000 packx
08006a1e l       .text	00000000 packx0
08006a62 l       .text	00000000 unpackxyalign
08006aac l       .text	00000000 packret
08006ab2 l       .text	00000000 mul0
08006b02 l       .text	00000000 fmul0
08006b0a l       .text	00000000 fdiv_n
08006b42 l       .text	00000000 infret
08006b4c l       .text	00000000 fdiv_fast_n
08006bfc l       .text	00000000 rcpapp
08006b94 l       .text	00000000 div0
08006c04 l       .text	00000000 rsqrtapp
08006c5e l       .text	00000000 packretns
08006c74 l       .text	00000000 cordic_start
08006c7e l       .text	00000000 cordic_vstep
08006c84 l       .text	00000000 cordic_rstep
08006cb0 l       .text	00000000 cordic_rot
08006cd2 l       .text	00000000 cordic_exit
08006cd8 l       .text	00000000 cordic_vec
08006e24 l       .text	00000000 pi_q29
08006e24 l       .text	00000000 tab_cc
08006e58 l       .text	00000000 tab_ch
08006e94 l       .text	00000000 qfp_lib_end
08004b38 g     F .text	00000034 __wrap___aeabi_dcmpun
20000008 g     O .bss	00000004 rf
08006274 g     F .text	0000002c .hidden __aeabi_dcmpun
08006238 g     F .text	00000012 .hidden __aeabi_dcmple
080058b0 g     F .text	000000ba strcpy
0800497c g     F .text	00000030 __wrap___aeabi_ddiv
08006174 g     F .text	0000007a .hidden __cmpdf2
08006b4a g     F .text	00000000 qfp_fdiv_fast
08004c20 g     F .text	00000010 __wrap___subsf3
08004c6c g     F .text	0000001c log
08004b7c g     F .text	00000010 __wrap___aeabi_fadd
08004c50 g     F .text	0000001c sqrt
080025c8 g     F .text	00000160 test_cos
0800431c g     F .text	00000008 UnityPrint
08005114 g     F .text	000000a4 cosh
08005268 g     F .text	00000098 asinh
0800693c  w    F .text	00000090 reset_handler
08006174 g     F .text	0000007a .hidden __eqdf2
08005ce4 g     F .text	0000005a .hidden __floatdidf
08001b78 g     F .text	0000012c test_mulsf3
08006938  w    F .text	00000002 usart3_isr
08006938  w    F .text	00000002 rtc_isr
08006938  w    F .text	00000002 tim7_isr
08006938  w    F .text	00000002 adc1_2_isr
08006714 g     F .text	00000136 .hidden __divsf3
08004bac g     F .text	0000002c __wrap___aeabi_d2iz
08006938  w    F .text	00000002 tim1_trg_com_isr
20000018 g     O .bss	00000008 x
080043c8 g     F .text	0000003a UnityPrintNumberByStyle
08001680 g     F .text	0000012c test_aeabi_fmul
08006a9a g     F .text	00000000 qfp_fadd
080071c4 g       .fini_array	00000000 __exidx_end
080049ac g     F .text	00000030 __wrap___aeabi_dmul
08006938  w    F .text	00000002 usb_hp_can_tx_isr
08006164 g     F .text	0000008a .hidden __gtdf2
08000450 g     F .text	0000019c test_aeabi_dmul
08001530 g     F .text	0000014c test_aeabi_fsub
0800428a g     F .text	00000018 UnityPrintNumber
08006a94 g     F .text	00000000 qfp_fsub
0800556c g     F .text	00000080 ceil
08006938  w    F .text	00000002 tim6_isr
080054f0 g     F .text	0000007c floor
080071c4 g       .text	00000000 _etext
08006938  w    F .text	00000002 usb_wakeup_isr
08006938 g     F .text	00000002 blocking_handler
08006200 g     F .text	00000010 .hidden __aeabi_cdcmple
08001f70 g     F .text	00000128 test_exp
080018d8 g     F .text	0000014c test_addsf3
0800639c g     F .text	00000160 .hidden __aeabi_fadd
08006938  w    F .text	00000002 tim5_isr
08006398 g     F .text	00000164 .hidden __subsf3
08003ff4 g     F .text	0000001c debug_println
08004b8c g     F .text	00000010 __wrap___aeabi_fsub
08006938  w    F .text	00000002 otg_fs_isr
08006938  w    F .text	00000002 spi1_isr
08004c30 g     F .text	00000010 __wrap___mulsf3
08005730 g     F .text	000000ec memcpy
08006938  w    F .text	00000002 exti2_isr
08006938  w    F .text	00000002 dma1_channel6_isr
080061f0 g     F .text	00000020 .hidden __aeabi_cdrcmple
080012dc g     F .text	00000100 test_aeabi_fdiv
0800693a g     F .text	00000002 null_handler
08006924 g     F .text	00000012 .hidden __aeabi_fcmpgt
08005c6c g     F .text	00000022 .hidden __floatsidf
08001ea0 g     F .text	000000d0 test_log
0800616c g     F .text	00000082 .hidden __ltdf2
08006938  w    F .text	00000002 can_rx1_isr
080002b0 g     F .text	0000019c test_aeabi_ddiv
080071c4 g       .fini_array	00000000 __fini_array_end
08006938  w    F .text	00000002 dma1_channel5_isr
08000c40 g     F .text	000001a4 test_aeabi_dcmple
08006938  w    F .text	00000002 dma2_channel5_isr
08006504 g     F .text	0000001c .hidden __aeabi_i2f
08004d7c g     F .text	00000040 ldexp
08006854 g     F .text	00000066 .hidden __lesf2
08006938  w    F .text	00000002 usart1_isr
08002470 g     F .text	00000158 test_sin
08004c10 g     F .text	00000010 __wrap___addsf3
08005c4c g     F .text	0000001e .hidden __aeabi_ui2d
080059c8 g     F .text	00000000 .hidden __aeabi_drsub
20000020 g     O .bss	00000004 xf
08006938  w    F .text	00000002 usage_fault_handler
08006938  w    F .text	00000002 tim8_trg_com_isr
08000de8 g     F .text	000001a4 test_aeabi_dcmpge
08006938  w    F .text	00000002 can2_rx0_isr
08004010 g     F .text	00000042 debug_printhex
08004256 g     F .text	00000034 UnityPrintNumberUnsigned
08006938  w    F .text	00000002 tim1_brk_isr
08006224 g     F .text	00000012 .hidden __aeabi_dcmplt
08002288 g     F .text	00000118 test_pow
08006c3c g     F .text	00000000 qfp_float2ufix
08006b9a g     F .text	00000000 qfp_fsqrt_fast
08003fa0 g     F .text	00000006 debug_flush
08005c90 g     F .text	00000042 .hidden __extendsfdf2
08005f94 g     F .text	000001d0 .hidden __aeabi_ddiv
08004970 g     F .text	0000000c get_float_usage
080059d4 g     F .text	00000276 .hidden __adddf3
0800685c g     F .text	0000005e .hidden __nesf2
080071c4 g       .fini_array	00000000 __exidx_start
08006938  w    F .text	00000002 can2_rx1_isr
08005d40 g     F .text	00000254 .hidden __aeabi_dmul
20000010 g     O .bss	00000004 ru
08003258 g     F .text	000000c8 test_atanh
08006938  w    F .text	00000002 tim1_cc_isr
08003498 g     F .text	0000017c test_floor
08005c4c g     F .text	0000001e .hidden __floatunsidf
08006938  w    F .text	00000002 sdio_isr
080031c8 g     F .text	00000090 test_acosh
08006938  w    F .text	00000002 eth_isr
08006c64 g     F .text	00000000 qfp_ufix2float
20000030 g     O .bss	00000004 yf
08004a70 g     F .text	00000030 __wrap___aeabi_dcmplt
08006938  w    F .text	00000002 dma1_channel4_isr
08006938  w    F .text	00000002 tim8_brk_isr
08004b04 g     F .text	00000034 __wrap___aeabi_dcmpgt
08006938  w    F .text	00000002 dma2_channel4_5_isr
080062f0 g     F .text	0000009e .hidden __aeabi_d2f
08004b9c g     F .text	00000010 __wrap___aeabi_fmul
08006398 g     F .text	00000164 .hidden __aeabi_fsub
200002a0 g       .bss	00000000 _ebss
08006938  w    F .text	00000002 pvd_isr
08006910 g     F .text	00000012 .hidden __aeabi_fcmpge
080062a0 g     F .text	0000004e .hidden __fixdfsi
20000000 g     O .bss	00000008 r
08001a28 g     F .text	0000014c test_subsf3
08006530 g     F .text	0000007c .hidden __floatdisf
08000f90 g     F .text	000001a4 test_aeabi_dcmpgt
08006c3a g     F .text	00000000 qfp_float2uint
0800684c g     F .text	0000006e .hidden __gtsf2
080059d4 g     F .text	00000276 .hidden __aeabi_dadd
0800616c g     F .text	00000082 .hidden __ledf2
0800693a  w    F .text	00000002 sv_call_handler
080068fc g     F .text	00000012 .hidden __aeabi_fcmple
080021b0 g     F .text	000000d8 test_log10
08006938  w    F .text	00000002 rcc_isr
08004a0c g     F .text	00000030 __wrap___aeabi_dsub
08000000 g     O .text	00000150 vector_table
08005cd4 g     F .text	0000006a .hidden __aeabi_ul2d
08006d4e g     F .text	00000000 qfp_fexp
08002b68 g     F .text	000000a8 test_asin
20000278 g     O .bss	00000028 Unity
08006d3c g     F .text	00000000 qfp_fcos
08006938  w    F .text	00000002 flash_isr
080071c4 g       *ABS*	00000000 _data_loadaddr
200002a0 g       .bss	00000000 end
08006938  w    F .text	00000002 uart4_isr
08006938  w    F .text	00000002 rtc_alarm_isr
08006938  w    F .text	00000002 exti15_10_isr
080005f0 g     F .text	0000017c test_aeabi_dadd
08006260 g     F .text	00000012 .hidden __aeabi_dcmpgt
080055ec g     F .text	00000144 fmod
08004dd8 g     F .text	00000034 cos
080051b8 g     F .text	000000b0 tanh
08006938  w    F .text	00000002 hard_fault_handler
08006938  w    F .text	00000002 exti1_isr
08004ad4 g     F .text	00000030 __wrap___aeabi_dcmpge
0800624c g     F .text	00000012 .hidden __aeabi_dcmpge
08000770 g     F .text	0000017c test_aeabi_dsub
08006938  w    F .text	00000002 i2c1_ev_isr
08006af8 g     F .text	00000000 qfp_fmul
080059d0 g     F .text	0000027a .hidden __aeabi_dsub
08006938  w    F .text	00000002 dma2_channel1_isr
08006db8 g     F .text	00000000 qfp_fln
08003f04 g     F .text	0000000c enable_log
0800693a  w    F .text	00000002 pend_sv_handler
08004dbc g     F .text	0000001c sin
08005cd4 g     F .text	0000006a .hidden __floatundidf
08003970 g     F .text	00000510 test_nanofloat
08002d88 g     F .text	00000110 test_sinh
08006938  w    F .text	00000002 spi2_isr
08004e28 g     F .text	00000050 atan2
08006504 g     F .text	0000001c .hidden __floatsisf
080049dc g     F .text	00000030 __wrap___aeabi_dadd
08004a3c g     F .text	00000034 __wrap___aeabi_dcmpeq
08006c10 g     F .text	00000000 qfp_float2int
08006938  w    F .text	00000002 tim8_up_isr
08006ddc g     F .text	00000000 qfp_fatan2
08004cf4 g     F .text	00000088 pow
0800507c g     F .text	00000098 sinh
0800685c g     F .text	0000005e .hidden __eqsf2
080053b0 g     F .text	000000c0 atanh
08004ccc g     F .text	00000028 log10
080048b0 g     F .text	0000002c UnityDefaultTestRun
08000a98 g     F .text	000001a4 test_aeabi_dcmplt
08006714 g     F .text	00000136 .hidden __aeabi_fdiv
08005c6c g     F .text	00000022 .hidden __aeabi_i2d
08006938  w    F .text	00000002 dma2_channel2_isr
08006c58 g     F .text	00000000 qfp_fix2float
08002728 g     F .text	00000150 test_tan
08006520 g     F .text	0000008c .hidden __floatundisf
0800693a  w    F .text	00000002 debug_monitor_handler
08006938  w    F .text	00000002 exti3_isr
08006938  w    F .text	00000002 adc3_isr
08005f94 g     F .text	000001d0 .hidden __divdf3
080013e0 g     F .text	0000014c test_aeabi_fadd
08006938  w    F .text	00000002 tim3_isr
08006938  w    F .text	00000002 usart2_isr
08006d46 g     F .text	00000000 qfp_ftan
08004aa0 g     F .text	00000034 __wrap___aeabi_dcmple
080017b0 g     F .text	00000094 test_aeabi_d2iz
080064fc g     F .text	00000024 .hidden __aeabi_ui2f
08002878 g     F .text	00000220 test_atan2
08005d40 g     F .text	00000254 .hidden __muldf3
08003fda g     F .text	0000001a debug_print
08006938  w    F .text	00000002 usb_lp_can_rx0_isr
080071c4 g       .fini_array	00000000 __fini_array_start
08006938  w    F .text	00000002 i2c2_er_isr
080030b8 g     F .text	00000110 test_asinh
08001138 g     F .text	000001a4 test_aeabi_dcmpun
0800685c g     F .text	0000005e .hidden __cmpsf2
0800581c g     F .text	00000094 memset
08003e80 g     F .text	00000028 main
08006cfa g     F .text	00000000 qfp_fsin
08006938  w    F .text	00000002 i2c2_ev_isr
08006530 g     F .text	0000007c .hidden __aeabi_l2f
08006938  w    F .text	00000002 uart5_isr
08006854 g     F .text	00000066 .hidden __ltsf2
08003ea8 g     F .text	00000006 unity_output_char
0800693a  w    F .text	00000002 sys_tick_handler
080062f0 g     F .text	0000009e .hidden __truncdfsf2
080071c4 g       .init_array	00000000 __init_array_end
08006938  w    F .text	00000002 fsmc_isr
080048dc g     F .text	00000020 UnityBegin
08006938  w    F .text	00000002 dma1_channel1_isr
08006938  w    F .text	00000002 exti4_isr
20000028 g     O .bss	00000008 y
08006d7e g     F .text	00000000 qfp_fsqrt
08005ce4 g     F .text	0000005a .hidden __aeabi_l2d
08003fa8 g     F .text	0000001c debug_force_flush
08006520 g     F .text	0000008c .hidden __aeabi_ul2f
08004c88 g     F .text	0000001c exp
080068c4 g     F .text	00000010 .hidden __aeabi_cfcmple
080065ac g     F .text	00000168 .hidden __mulsf3
08006c56 g     F .text	00000000 qfp_int2float
08001dd8 g     F .text	000000c8 test_sqrt
08004e0c g     F .text	0000001c tan
08006938  w    F .text	00000002 mem_manage_handler
08004408 g     F .text	00000354 UnityPrintFloat
08006174 g     F .text	0000007a .hidden __nedf2
08006938  w    F .text	00000002 can2_tx_isr
08004e78 g     F .text	000000ac atan
0800684c g     F .text	0000006e .hidden __gesf2
08006938  w    F .text	00000002 exti9_5_isr
08004f24 g     F .text	0000008c asin
08006938  w    F .text	00000002 dma2_channel3_isr
08006c12 g     F .text	00000000 qfp_float2fix
08006390 g     F .text	0000016c .hidden __aeabi_frsub
080068d4 g     F .text	00000012 .hidden __aeabi_fcmpeq
08002a98 g     F .text	000000cc test_atan
080065ac g     F .text	00000168 .hidden __aeabi_fmul
08004b6c g     F .text	00000010 __wrap___aeabi_fdiv
080071c4 g       .preinit_array	00000000 __preinit_array_end
08006938  w    F .text	00000002 dma1_channel7_isr
08003fc4 g     F .text	00000016 debug_write
08001848 g     F .text	00000090 test_aeabi_d2uiz
080068bc g     F .text	00000018 .hidden __aeabi_cfrcmple
08003320 g     F .text	00000178 test_trunc
20000000 g       .data	00000000 _data
08006938  w    F .text	00000002 tim1_up_isr
08003618 g     F .text	0000017c test_ceil
08005300 g     F .text	000000b0 acosh
080047f8 g     F .text	00000058 UnityAssertFloatsWithin
2000000c g     O .bss	00000004 ri
08003798 g     F .text	000001d8 test_fmod
08004bd8 g     F .text	00000038 __wrap___aeabi_d2uiz
08006c62 g     F .text	00000000 qfp_uint2float
08000150 g     F .text	00000160 test_fabs
080068e8 g     F .text	00000012 .hidden __aeabi_fcmplt
08006938  w    F .text	00000002 can2_sce_isr
08006938  w    F .text	00000002 tim4_isr
08006210 g     F .text	00000012 .hidden __aeabi_dcmpeq
08004252  w    F .text	00000002 setUp
20000000 g       .data	00000000 _edata
08006938  w    F .text	00000002 dma1_channel2_isr
08006938  w    F .text	00000002 i2c1_er_isr
08006938  w    F .text	00000002 can_sce_isr
08006b08 g     F .text	00000000 qfp_fdiv
08002098 g     F .text	00000114 test_log2
08002c10 g     F .text	00000174 test_acos
0800693a  w    F .text	00000002 nmi_handler
08006adc g     F .text	00000000 qfp_fcmp
08003f10 g     F .text	00000090 _Z20debug_flush_internalb
08002fa8 g     F .text	00000110 test_tanh
08004ca4 g     F .text	00000028 log2
080064fc g     F .text	00000024 .hidden __floatunsisf
08006938  w    F .text	00000002 tim8_cc_isr
080062a0 g     F .text	0000004e .hidden __aeabi_d2iz
08001ca8 g     F .text	0000012c test_divsf3
080068c4 g     F .text	00000010 .hidden __aeabi_cfcmpeq
08006938  w    F .text	00000002 tamper_isr
08004c40 g     F .text	00000010 __wrap___divsf3
080071c4 g       .init_array	00000000 __init_array_start
08006274 g     F .text	0000002c .hidden __unorddf2
080047a0 g     F .text	00000058 UnityAssertEqualNumber
08004254  w    F .text	00000002 tearDown
08006938  w    F .text	00000002 eth_wkup_isr
08002e98 g     F .text	00000110 test_cosh
0800596c g     F .text	0000005c strlen
080042a2 g     F .text	0000002e UnityPrintNumberHex
08006200 g     F .text	00000010 .hidden __aeabi_cdcmpeq
080023a0 g     F .text	000000cc test_ldexp
08006164 g     F .text	0000008a .hidden __gedf2
20005000 g       .bss	00000000 _stack
080008f0 g     F .text	000001a4 test_aeabi_dcmpeq
0800475c g     F .text	00000044 UnityConcludeTest
08005c90 g     F .text	00000042 .hidden __aeabi_f2d
08006938  w    F .text	00000002 bus_fault_handler
08006938  w    F .text	00000002 wwdg_isr
08006938  w    F .text	00000002 dma1_channel3_isr
08004fb0 g     F .text	000000cc acos
080059d0 g     F .text	0000027a .hidden __subdf3
08004850 g     F .text	00000060 UnityAssertDoublesWithin
080071c4 g       .preinit_array	00000000 __preinit_array_start
08005470 g     F .text	00000080 trunc
080048fc g     F .text	00000074 UnityEnd
08006938  w    F .text	00000002 spi3_isr
0800639c g     F .text	00000160 .hidden __addsf3
08006938  w    F .text	00000002 tim2_isr
08006938  w    F .text	00000002 exti0_isr



Disassembly of section .text:

08000000 <vector_table>:
 8000000:	00 50 00 20 3d 69 00 08 3b 69 00 08 39 69 00 08     .P. =i..;i..9i..
 8000010:	39 69 00 08 39 69 00 08 39 69 00 08 00 00 00 00     9i..9i..9i......
	...
 800002c:	3b 69 00 08 3b 69 00 08 00 00 00 00 3b 69 00 08     ;i..;i......;i..
 800003c:	3b 69 00 08 39 69 00 08 39 69 00 08 39 69 00 08     ;i..9i..9i..9i..
 800004c:	39 69 00 08 39 69 00 08 39 69 00 08 39 69 00 08     9i..9i..9i..9i..
 800005c:	39 69 00 08 39 69 00 08 39 69 00 08 39 69 00 08     9i..9i..9i..9i..
 800006c:	39 69 00 08 39 69 00 08 39 69 00 08 39 69 00 08     9i..9i..9i..9i..
 800007c:	39 69 00 08 39 69 00 08 39 69 00 08 39 69 00 08     9i..9i..9i..9i..
 800008c:	39 69 00 08 39 69 00 08 39 69 00 08 39 69 00 08     9i..9i..9i..9i..
 800009c:	39 69 00 08 39 69 00 08 39 69 00 08 39 69 00 08     9i..9i..9i..9i..
 80000ac:	39 69 00 08 39 69 00 08 39 69 00 08 39 69 00 08     9i..9i..9i..9i..
 80000bc:	39 69 00 08 39 69 00 08 39 69 00 08 39 69 00 08     9i..9i..9i..9i..
 80000cc:	39 69 00 08 39 69 00 08 39 69 00 08 39 69 00 08     9i..9i..9i..9i..
 80000dc:	39 69 00 08 39 69 00 08 39 69 00 08 39 69 00 08     9i..9i..9i..9i..
 80000ec:	39 69 00 08 39 69 00 08 39 69 00 08 39 69 00 08     9i..9i..9i..9i..
 80000fc:	39 69 00 08 39 69 00 08 39 69 00 08 39 69 00 08     9i..9i..9i..9i..
 800010c:	39 69 00 08 39 69 00 08 39 69 00 08 39 69 00 08     9i..9i..9i..9i..
 800011c:	39 69 00 08 39 69 00 08 39 69 00 08 39 69 00 08     9i..9i..9i..9i..
 800012c:	39 69 00 08 39 69 00 08 39 69 00 08 39 69 00 08     9i..9i..9i..9i..
 800013c:	39 69 00 08 39 69 00 08 39 69 00 08 39 69 00 08     9i..9i..9i..9i..
 800014c:	39 69 00 08                                         9i..

08000150 <test_fabs>:
test_fabs():
/Users/Luppy/stm32bluepill-unittest/src/../lib/nano-float/test/test.c:420
x = -0.0;      y = 1.0;  r = fmod(x, y);     TEST_ASSERT_EQUAL_DOUBLE( -0.0        , r );
// x = +5.1;   y = Inf;  r = fmod(x, y);     TEST_ASSERT_EQUAL_DOUBLE( 5.1         , r );
// x = +5.1;   y = 0;    r = fmod(x, y);     TEST_ASSERT_EQUAL_DOUBLE( nan         , r );
}

void test_fabs(void) {
 8000150:	e92d 47ff 	stmdb	sp!, {r0, r1, r2, r3, r4, r5, r6, r7, r8, r9, sl, lr}
/Users/Luppy/stm32bluepill-unittest/src/../lib/nano-float/test/test.c:421
x = +3;        r = fabs(x);     TEST_ASSERT_EQUAL_DOUBLE( 3.000000    , r );
 8000154:	f20f 1918 	addw	r9, pc, #280	; 0x118
 8000158:	e9d9 8900 	ldrd	r8, r9, [r9]
 800015c:	2600      	movs	r6, #0
 800015e:	4d50      	ldr	r5, [pc, #320]	; (80002a0 <test_fabs+0x150>)
 8000160:	4f50      	ldr	r7, [pc, #320]	; (80002a4 <test_fabs+0x154>)
 8000162:	f04f 0a00 	mov.w	sl, #0
 8000166:	e9c5 6700 	strd	r6, r7, [r5]
 800016a:	e9d5 0100 	ldrd	r0, r1, [r5]
 800016e:	4602      	mov	r2, r0
 8000170:	f021 4300 	bic.w	r3, r1, #2147483648	; 0x80000000
 8000174:	f240 11a5 	movw	r1, #421	; 0x1a5
 8000178:	4c4b      	ldr	r4, [pc, #300]	; (80002a8 <test_fabs+0x158>)
 800017a:	e9cd a102 	strd	sl, r1, [sp, #8]
 800017e:	e9c4 2300 	strd	r2, r3, [r4]
 8000182:	4640      	mov	r0, r8
 8000184:	e9d4 2300 	ldrd	r2, r3, [r4]
 8000188:	4649      	mov	r1, r9
 800018a:	e9cd 2300 	strd	r2, r3, [sp]
 800018e:	4632      	mov	r2, r6
 8000190:	463b      	mov	r3, r7
 8000192:	f004 fb5d 	bl	8004850 <UnityAssertDoublesWithin>
/Users/Luppy/stm32bluepill-unittest/src/../lib/nano-float/test/test.c:422
x = -3;        r = fabs(x);     TEST_ASSERT_EQUAL_DOUBLE( 3.000000    , r );
 8000196:	2200      	movs	r2, #0
 8000198:	4b44      	ldr	r3, [pc, #272]	; (80002ac <test_fabs+0x15c>)
 800019a:	e9c5 2300 	strd	r2, r3, [r5]
 800019e:	e9d5 0100 	ldrd	r0, r1, [r5]
 80001a2:	4602      	mov	r2, r0
 80001a4:	f021 4300 	bic.w	r3, r1, #2147483648	; 0x80000000
 80001a8:	e9c4 2300 	strd	r2, r3, [r4]
 80001ac:	f44f 71d3 	mov.w	r1, #422	; 0x1a6
 80001b0:	e9d4 2300 	ldrd	r2, r3, [r4]
 80001b4:	e9cd 2300 	strd	r2, r3, [sp]
 80001b8:	4632      	mov	r2, r6
 80001ba:	463b      	mov	r3, r7
/Users/Luppy/stm32bluepill-unittest/src/../lib/nano-float/test/test.c:423
x = -0;        r = fabs(x);     TEST_ASSERT_EQUAL_DOUBLE( 0.000000    , r );
 80001bc:	2600      	movs	r6, #0
 80001be:	2700      	movs	r7, #0
/Users/Luppy/stm32bluepill-unittest/src/../lib/nano-float/test/test.c:422
x = -3;        r = fabs(x);     TEST_ASSERT_EQUAL_DOUBLE( 3.000000    , r );
 80001c0:	e9cd a102 	strd	sl, r1, [sp, #8]
 80001c4:	4640      	mov	r0, r8
 80001c6:	4649      	mov	r1, r9
 80001c8:	f004 fb42 	bl	8004850 <UnityAssertDoublesWithin>
/Users/Luppy/stm32bluepill-unittest/src/../lib/nano-float/test/test.c:423
x = -0;        r = fabs(x);     TEST_ASSERT_EQUAL_DOUBLE( 0.000000    , r );
 80001cc:	e9c5 6700 	strd	r6, r7, [r5]
 80001d0:	e9d5 0100 	ldrd	r0, r1, [r5]
 80001d4:	4602      	mov	r2, r0
 80001d6:	f021 4300 	bic.w	r3, r1, #2147483648	; 0x80000000
 80001da:	f240 11a7 	movw	r1, #423	; 0x1a7
 80001de:	e9c4 2300 	strd	r2, r3, [r4]
 80001e2:	e9cd a102 	strd	sl, r1, [sp, #8]
 80001e6:	e9d4 2300 	ldrd	r2, r3, [r4]
 80001ea:	4630      	mov	r0, r6
 80001ec:	e9cd 2300 	strd	r2, r3, [sp]
 80001f0:	4639      	mov	r1, r7
 80001f2:	4632      	mov	r2, r6
 80001f4:	463b      	mov	r3, r7
/Users/Luppy/stm32bluepill-unittest/src/../lib/nano-float/test/test.c:424
x = 2205.1969; r = fabs(x);     TEST_ASSERT_EQUAL_DOUBLE( 2205.1969   , r );
 80001f6:	a720      	add	r7, pc, #128	; (adr r7, 8000278 <test_fabs+0x128>)
 80001f8:	e9d7 6700 	ldrd	r6, r7, [r7]
/Users/Luppy/stm32bluepill-unittest/src/../lib/nano-float/test/test.c:423
x = -0;        r = fabs(x);     TEST_ASSERT_EQUAL_DOUBLE( 0.000000    , r );
 80001fc:	f004 fb28 	bl	8004850 <UnityAssertDoublesWithin>
/Users/Luppy/stm32bluepill-unittest/src/../lib/nano-float/test/test.c:424
x = 2205.1969; r = fabs(x);     TEST_ASSERT_EQUAL_DOUBLE( 2205.1969   , r );
 8000200:	e9c5 6700 	strd	r6, r7, [r5]
 8000204:	e9d5 0100 	ldrd	r0, r1, [r5]
 8000208:	4602      	mov	r2, r0
 800020a:	f021 4300 	bic.w	r3, r1, #2147483648	; 0x80000000
 800020e:	f44f 71d4 	mov.w	r1, #424	; 0x1a8
 8000212:	e9c4 2300 	strd	r2, r3, [r4]
 8000216:	e9cd a102 	strd	sl, r1, [sp, #8]
 800021a:	e9d4 2300 	ldrd	r2, r3, [r4]
 800021e:	a118      	add	r1, pc, #96	; (adr r1, 8000280 <test_fabs+0x130>)
 8000220:	e9d1 0100 	ldrd	r0, r1, [r1]
 8000224:	e9cd 2300 	strd	r2, r3, [sp]
 8000228:	4632      	mov	r2, r6
 800022a:	463b      	mov	r3, r7
 800022c:	f004 fb10 	bl	8004850 <UnityAssertDoublesWithin>
/Users/Luppy/stm32bluepill-unittest/src/../lib/nano-float/test/test.c:425
x = -270.8886; r = fabs(x);     TEST_ASSERT_EQUAL_DOUBLE( 270.8886    , r );
 8000230:	a315      	add	r3, pc, #84	; (adr r3, 8000288 <test_fabs+0x138>)
 8000232:	e9d3 2300 	ldrd	r2, r3, [r3]
 8000236:	e9c5 2300 	strd	r2, r3, [r5]
 800023a:	e9d5 0100 	ldrd	r0, r1, [r5]
 800023e:	4602      	mov	r2, r0
 8000240:	f021 4300 	bic.w	r3, r1, #2147483648	; 0x80000000
 8000244:	f240 11a9 	movw	r1, #425	; 0x1a9
 8000248:	e9c4 2300 	strd	r2, r3, [r4]
 800024c:	e9cd a102 	strd	sl, r1, [sp, #8]
 8000250:	e9d4 2300 	ldrd	r2, r3, [r4]
 8000254:	a10e      	add	r1, pc, #56	; (adr r1, 8000290 <test_fabs+0x140>)
 8000256:	e9d1 0100 	ldrd	r0, r1, [r1]
 800025a:	e9cd 2300 	strd	r2, r3, [sp]
 800025e:	a30e      	add	r3, pc, #56	; (adr r3, 8000298 <test_fabs+0x148>)
 8000260:	e9d3 2300 	ldrd	r2, r3, [r3]
 8000264:	f004 faf4 	bl	8004850 <UnityAssertDoublesWithin>
/Users/Luppy/stm32bluepill-unittest/src/../lib/nano-float/test/test.c:426
}
 8000268:	b004      	add	sp, #16
 800026a:	e8bd 87f0 	ldmia.w	sp!, {r4, r5, r6, r7, r8, r9, sl, pc}
 800026e:	bf00      	nop
 8000270:	7110e454 	.word	0x7110e454
 8000274:	3ec92a73 	.word	0x3ec92a73
 8000278:	d013a92a 	.word	0xd013a92a
 800027c:	40a13a64 	.word	0x40a13a64
 8000280:	1222bd25 	.word	0x1222bd25
 8000284:	3f6210a2 	.word	0x3f6210a2
 8000288:	b4a2339c 	.word	0xb4a2339c
 800028c:	c070ee37 	.word	0xc070ee37
 8000290:	ad882ea5 	.word	0xad882ea5
 8000294:	3f31c0c1 	.word	0x3f31c0c1
 8000298:	b4a2339c 	.word	0xb4a2339c
 800029c:	4070ee37 	.word	0x4070ee37
 80002a0:	20000018 	.word	0x20000018
 80002a4:	40080000 	.word	0x40080000
 80002a8:	20000000 	.word	0x20000000
 80002ac:	c0080000 	.word	0xc0080000

080002b0 <test_aeabi_ddiv>:
test_aeabi_ddiv():
/Users/Luppy/stm32bluepill-unittest/src/../lib/nano-float/test/test.c:64
void test_aeabi_ddiv(void) {
 80002b0:	e92d 4ff0 	stmdb	sp!, {r4, r5, r6, r7, r8, r9, sl, fp, lr}
/Users/Luppy/stm32bluepill-unittest/src/../lib/nano-float/test/test.c:66
x = 2205.1969;  y = 270.8886;   r = x / y;                       TEST_ASSERT_EQUAL_DOUBLE( 8.140604292687105, r );
 80002b4:	a752      	add	r7, pc, #328	; (adr r7, 8000400 <test_aeabi_ddiv+0x150>)
 80002b6:	e9d7 6700 	ldrd	r6, r7, [r7]
 80002ba:	f20f 194c 	addw	r9, pc, #332	; 0x14c
 80002be:	e9d9 8900 	ldrd	r8, r9, [r9]
 80002c2:	f8df a184 	ldr.w	sl, [pc, #388]	; 8000448 <test_aeabi_ddiv+0x198>
 80002c6:	4d5e      	ldr	r5, [pc, #376]	; (8000440 <test_aeabi_ddiv+0x190>)
 80002c8:	e9ca 6700 	strd	r6, r7, [sl]
 80002cc:	e9c5 8900 	strd	r8, r9, [r5]
/Users/Luppy/stm32bluepill-unittest/src/../lib/nano-float/test/test.c:64
void test_aeabi_ddiv(void) {
 80002d0:	b085      	sub	sp, #20
/Users/Luppy/stm32bluepill-unittest/src/../lib/nano-float/test/test.c:66
x = 2205.1969;  y = 270.8886;   r = x / y;                       TEST_ASSERT_EQUAL_DOUBLE( 8.140604292687105, r );
 80002d2:	e9da 0100 	ldrd	r0, r1, [sl]
 80002d6:	e9d5 2300 	ldrd	r2, r3, [r5]
 80002da:	f005 fe5b 	bl	8005f94 <__aeabi_ddiv>
 80002de:	4c59      	ldr	r4, [pc, #356]	; (8000444 <test_aeabi_ddiv+0x194>)
 80002e0:	f04f 0b00 	mov.w	fp, #0
 80002e4:	e9c4 0100 	strd	r0, r1, [r4]
 80002e8:	2142      	movs	r1, #66	; 0x42
 80002ea:	e9d4 2300 	ldrd	r2, r3, [r4]
 80002ee:	e9cd b102 	strd	fp, r1, [sp, #8]
 80002f2:	a147      	add	r1, pc, #284	; (adr r1, 8000410 <test_aeabi_ddiv+0x160>)
 80002f4:	e9d1 0100 	ldrd	r0, r1, [r1]
 80002f8:	e9cd 2300 	strd	r2, r3, [sp]
 80002fc:	a346      	add	r3, pc, #280	; (adr r3, 8000418 <test_aeabi_ddiv+0x168>)
 80002fe:	e9d3 2300 	ldrd	r2, r3, [r3]
 8000302:	f004 faa5 	bl	8004850 <UnityAssertDoublesWithin>
/Users/Luppy/stm32bluepill-unittest/src/../lib/nano-float/test/test.c:67
x = 2205.1969;  y = 270.8886;   r = __wrap___aeabi_ddiv(x, y);   TEST_ASSERT_EQUAL_DOUBLE( 8.140604292687105  , r );
 8000306:	e9ca 6700 	strd	r6, r7, [sl]
 800030a:	e9c5 8900 	strd	r8, r9, [r5]
 800030e:	e9da 0100 	ldrd	r0, r1, [sl]
 8000312:	e9d5 2300 	ldrd	r2, r3, [r5]
 8000316:	f004 fb31 	bl	800497c <__wrap___aeabi_ddiv>
 800031a:	e9c4 0100 	strd	r0, r1, [r4]
 800031e:	2143      	movs	r1, #67	; 0x43
 8000320:	e9d4 2300 	ldrd	r2, r3, [r4]
 8000324:	e9cd b102 	strd	fp, r1, [sp, #8]
 8000328:	a139      	add	r1, pc, #228	; (adr r1, 8000410 <test_aeabi_ddiv+0x160>)
 800032a:	e9d1 0100 	ldrd	r0, r1, [r1]
 800032e:	e9cd 2300 	strd	r2, r3, [sp]
 8000332:	a339      	add	r3, pc, #228	; (adr r3, 8000418 <test_aeabi_ddiv+0x168>)
 8000334:	e9d3 2300 	ldrd	r2, r3, [r3]
 8000338:	f004 fa8a 	bl	8004850 <UnityAssertDoublesWithin>
/Users/Luppy/stm32bluepill-unittest/src/../lib/nano-float/test/test.c:68
x = -2205.1969; y = 270.8886;   r = __wrap___aeabi_ddiv(x, y);   TEST_ASSERT_EQUAL_DOUBLE( -8.140604292687105 , r );
 800033c:	a338      	add	r3, pc, #224	; (adr r3, 8000420 <test_aeabi_ddiv+0x170>)
 800033e:	e9d3 2300 	ldrd	r2, r3, [r3]
 8000342:	e9ca 2300 	strd	r2, r3, [sl]
 8000346:	e9c5 8900 	strd	r8, r9, [r5]
 800034a:	f20f 09dc 	addw	r9, pc, #220	; 0xdc
 800034e:	e9d9 8900 	ldrd	r8, r9, [r9]
 8000352:	e9da 0100 	ldrd	r0, r1, [sl]
 8000356:	e9d5 2300 	ldrd	r2, r3, [r5]
 800035a:	f004 fb0f 	bl	800497c <__wrap___aeabi_ddiv>
 800035e:	e9c4 0100 	strd	r0, r1, [r4]
 8000362:	2144      	movs	r1, #68	; 0x44
 8000364:	e9d4 2300 	ldrd	r2, r3, [r4]
 8000368:	e9cd b102 	strd	fp, r1, [sp, #8]
 800036c:	a130      	add	r1, pc, #192	; (adr r1, 8000430 <test_aeabi_ddiv+0x180>)
 800036e:	e9d1 0100 	ldrd	r0, r1, [r1]
 8000372:	e9cd 2300 	strd	r2, r3, [sp]
 8000376:	4642      	mov	r2, r8
 8000378:	464b      	mov	r3, r9
 800037a:	f004 fa69 	bl	8004850 <UnityAssertDoublesWithin>
/Users/Luppy/stm32bluepill-unittest/src/../lib/nano-float/test/test.c:69
x = 2205.1969;  y = -270.8886;  r = __wrap___aeabi_ddiv(x, y);   TEST_ASSERT_EQUAL_DOUBLE( -8.140604292687105 , r );
 800037e:	e9ca 6700 	strd	r6, r7, [sl]
 8000382:	a72d      	add	r7, pc, #180	; (adr r7, 8000438 <test_aeabi_ddiv+0x188>)
 8000384:	e9d7 6700 	ldrd	r6, r7, [r7]
 8000388:	e9c5 6700 	strd	r6, r7, [r5]
 800038c:	e9da 0100 	ldrd	r0, r1, [sl]
 8000390:	e9d5 2300 	ldrd	r2, r3, [r5]
 8000394:	f004 faf2 	bl	800497c <__wrap___aeabi_ddiv>
 8000398:	e9c4 0100 	strd	r0, r1, [r4]
 800039c:	2145      	movs	r1, #69	; 0x45
 800039e:	e9d4 2300 	ldrd	r2, r3, [r4]
 80003a2:	e9cd b102 	strd	fp, r1, [sp, #8]
 80003a6:	a122      	add	r1, pc, #136	; (adr r1, 8000430 <test_aeabi_ddiv+0x180>)
 80003a8:	e9d1 0100 	ldrd	r0, r1, [r1]
 80003ac:	e9cd 2300 	strd	r2, r3, [sp]
 80003b0:	4642      	mov	r2, r8
 80003b2:	464b      	mov	r3, r9
 80003b4:	f004 fa4c 	bl	8004850 <UnityAssertDoublesWithin>
/Users/Luppy/stm32bluepill-unittest/src/../lib/nano-float/test/test.c:70
x = -2205.1969; y = -270.8886;  r = __wrap___aeabi_ddiv(x, y);   TEST_ASSERT_EQUAL_DOUBLE( 8.140604292687105  , r );
 80003b8:	a319      	add	r3, pc, #100	; (adr r3, 8000420 <test_aeabi_ddiv+0x170>)
 80003ba:	e9d3 2300 	ldrd	r2, r3, [r3]
 80003be:	e9ca 2300 	strd	r2, r3, [sl]
 80003c2:	e9c5 6700 	strd	r6, r7, [r5]
 80003c6:	e9da 0100 	ldrd	r0, r1, [sl]
 80003ca:	e9d5 2300 	ldrd	r2, r3, [r5]
 80003ce:	f004 fad5 	bl	800497c <__wrap___aeabi_ddiv>
 80003d2:	e9c4 0100 	strd	r0, r1, [r4]
 80003d6:	2146      	movs	r1, #70	; 0x46
 80003d8:	e9d4 2300 	ldrd	r2, r3, [r4]
 80003dc:	e9cd b102 	strd	fp, r1, [sp, #8]
 80003e0:	a10b      	add	r1, pc, #44	; (adr r1, 8000410 <test_aeabi_ddiv+0x160>)
 80003e2:	e9d1 0100 	ldrd	r0, r1, [r1]
 80003e6:	e9cd 2300 	strd	r2, r3, [sp]
 80003ea:	a30b      	add	r3, pc, #44	; (adr r3, 8000418 <test_aeabi_ddiv+0x168>)
 80003ec:	e9d3 2300 	ldrd	r2, r3, [r3]
 80003f0:	f004 fa2e 	bl	8004850 <UnityAssertDoublesWithin>
/Users/Luppy/stm32bluepill-unittest/src/../lib/nano-float/test/test.c:71
}
 80003f4:	b005      	add	sp, #20
 80003f6:	e8bd 8ff0 	ldmia.w	sp!, {r4, r5, r6, r7, r8, r9, sl, fp, pc}
 80003fa:	bf00      	nop
 80003fc:	f3af 8000 	nop.w
 8000400:	d013a92a 	.word	0xd013a92a
 8000404:	40a13a64 	.word	0x40a13a64
 8000408:	b4a2339c 	.word	0xb4a2339c
 800040c:	4070ee37 	.word	0x4070ee37
 8000410:	22763b8c 	.word	0x22763b8c
 8000414:	3ee11274 	.word	0x3ee11274
 8000418:	492d8962 	.word	0x492d8962
 800041c:	402047fd 	.word	0x402047fd
 8000420:	d013a92a 	.word	0xd013a92a
 8000424:	c0a13a64 	.word	0xc0a13a64
 8000428:	492d8962 	.word	0x492d8962
 800042c:	c02047fd 	.word	0xc02047fd
 8000430:	22763b8c 	.word	0x22763b8c
 8000434:	bee11274 	.word	0xbee11274
 8000438:	b4a2339c 	.word	0xb4a2339c
 800043c:	c070ee37 	.word	0xc070ee37
 8000440:	20000028 	.word	0x20000028
 8000444:	20000000 	.word	0x20000000
 8000448:	20000018 	.word	0x20000018
 800044c:	00000000 	.word	0x00000000

08000450 <test_aeabi_dmul>:
test_aeabi_dmul():
/Users/Luppy/stm32bluepill-unittest/src/../lib/nano-float/test/test.c:73
void test_aeabi_dmul(void) {
 8000450:	e92d 4ff0 	stmdb	sp!, {r4, r5, r6, r7, r8, r9, sl, fp, lr}
/Users/Luppy/stm32bluepill-unittest/src/../lib/nano-float/test/test.c:75
x = 2205.1969;  y = 270.8886;   r = x * y;                       TEST_ASSERT_EQUAL_DOUBLE( 597362.70096534, r );
 8000454:	a752      	add	r7, pc, #328	; (adr r7, 80005a0 <test_aeabi_dmul+0x150>)
 8000456:	e9d7 6700 	ldrd	r6, r7, [r7]
 800045a:	f20f 194c 	addw	r9, pc, #332	; 0x14c
 800045e:	e9d9 8900 	ldrd	r8, r9, [r9]
 8000462:	f8df a184 	ldr.w	sl, [pc, #388]	; 80005e8 <test_aeabi_dmul+0x198>
 8000466:	4d5e      	ldr	r5, [pc, #376]	; (80005e0 <test_aeabi_dmul+0x190>)
 8000468:	e9ca 6700 	strd	r6, r7, [sl]
 800046c:	e9c5 8900 	strd	r8, r9, [r5]
/Users/Luppy/stm32bluepill-unittest/src/../lib/nano-float/test/test.c:73
void test_aeabi_dmul(void) {
 8000470:	b085      	sub	sp, #20
/Users/Luppy/stm32bluepill-unittest/src/../lib/nano-float/test/test.c:75
x = 2205.1969;  y = 270.8886;   r = x * y;                       TEST_ASSERT_EQUAL_DOUBLE( 597362.70096534, r );
 8000472:	e9da 0100 	ldrd	r0, r1, [sl]
 8000476:	e9d5 2300 	ldrd	r2, r3, [r5]
 800047a:	f005 fc61 	bl	8005d40 <__aeabi_dmul>
 800047e:	4c59      	ldr	r4, [pc, #356]	; (80005e4 <test_aeabi_dmul+0x194>)
 8000480:	f04f 0b00 	mov.w	fp, #0
 8000484:	e9c4 0100 	strd	r0, r1, [r4]
 8000488:	214b      	movs	r1, #75	; 0x4b
 800048a:	e9d4 2300 	ldrd	r2, r3, [r4]
 800048e:	e9cd b102 	strd	fp, r1, [sp, #8]
 8000492:	a147      	add	r1, pc, #284	; (adr r1, 80005b0 <test_aeabi_dmul+0x160>)
 8000494:	e9d1 0100 	ldrd	r0, r1, [r1]
 8000498:	e9cd 2300 	strd	r2, r3, [sp]
 800049c:	a346      	add	r3, pc, #280	; (adr r3, 80005b8 <test_aeabi_dmul+0x168>)
 800049e:	e9d3 2300 	ldrd	r2, r3, [r3]
 80004a2:	f004 f9d5 	bl	8004850 <UnityAssertDoublesWithin>
/Users/Luppy/stm32bluepill-unittest/src/../lib/nano-float/test/test.c:76
x = 2205.1969;  y = 270.8886;   r = __wrap___aeabi_dmul(x, y);   TEST_ASSERT_EQUAL_DOUBLE( 597362.70096534    , r );
 80004a6:	e9ca 6700 	strd	r6, r7, [sl]
 80004aa:	e9c5 8900 	strd	r8, r9, [r5]
 80004ae:	e9da 0100 	ldrd	r0, r1, [sl]
 80004b2:	e9d5 2300 	ldrd	r2, r3, [r5]
 80004b6:	f004 fa79 	bl	80049ac <__wrap___aeabi_dmul>
 80004ba:	e9c4 0100 	strd	r0, r1, [r4]
 80004be:	214c      	movs	r1, #76	; 0x4c
 80004c0:	e9d4 2300 	ldrd	r2, r3, [r4]
 80004c4:	e9cd b102 	strd	fp, r1, [sp, #8]
 80004c8:	a139      	add	r1, pc, #228	; (adr r1, 80005b0 <test_aeabi_dmul+0x160>)
 80004ca:	e9d1 0100 	ldrd	r0, r1, [r1]
 80004ce:	e9cd 2300 	strd	r2, r3, [sp]
 80004d2:	a339      	add	r3, pc, #228	; (adr r3, 80005b8 <test_aeabi_dmul+0x168>)
 80004d4:	e9d3 2300 	ldrd	r2, r3, [r3]
 80004d8:	f004 f9ba 	bl	8004850 <UnityAssertDoublesWithin>
/Users/Luppy/stm32bluepill-unittest/src/../lib/nano-float/test/test.c:77
x = -2205.1969; y = 270.8886;   r = __wrap___aeabi_dmul(x, y);   TEST_ASSERT_EQUAL_DOUBLE( -597362.70096534   , r );
 80004dc:	a338      	add	r3, pc, #224	; (adr r3, 80005c0 <test_aeabi_dmul+0x170>)
 80004de:	e9d3 2300 	ldrd	r2, r3, [r3]
 80004e2:	e9ca 2300 	strd	r2, r3, [sl]
 80004e6:	e9c5 8900 	strd	r8, r9, [r5]
 80004ea:	f20f 09dc 	addw	r9, pc, #220	; 0xdc
 80004ee:	e9d9 8900 	ldrd	r8, r9, [r9]
 80004f2:	e9da 0100 	ldrd	r0, r1, [sl]
 80004f6:	e9d5 2300 	ldrd	r2, r3, [r5]
 80004fa:	f004 fa57 	bl	80049ac <__wrap___aeabi_dmul>
 80004fe:	e9c4 0100 	strd	r0, r1, [r4]
 8000502:	214d      	movs	r1, #77	; 0x4d
 8000504:	e9d4 2300 	ldrd	r2, r3, [r4]
 8000508:	e9cd b102 	strd	fp, r1, [sp, #8]
 800050c:	a130      	add	r1, pc, #192	; (adr r1, 80005d0 <test_aeabi_dmul+0x180>)
 800050e:	e9d1 0100 	ldrd	r0, r1, [r1]
 8000512:	e9cd 2300 	strd	r2, r3, [sp]
 8000516:	4642      	mov	r2, r8
 8000518:	464b      	mov	r3, r9
 800051a:	f004 f999 	bl	8004850 <UnityAssertDoublesWithin>
/Users/Luppy/stm32bluepill-unittest/src/../lib/nano-float/test/test.c:78
x = 2205.1969;  y = -270.8886;  r = __wrap___aeabi_dmul(x, y);   TEST_ASSERT_EQUAL_DOUBLE( -597362.70096534   , r );
 800051e:	e9ca 6700 	strd	r6, r7, [sl]
 8000522:	a72d      	add	r7, pc, #180	; (adr r7, 80005d8 <test_aeabi_dmul+0x188>)
 8000524:	e9d7 6700 	ldrd	r6, r7, [r7]
 8000528:	e9c5 6700 	strd	r6, r7, [r5]
 800052c:	e9da 0100 	ldrd	r0, r1, [sl]
 8000530:	e9d5 2300 	ldrd	r2, r3, [r5]
 8000534:	f004 fa3a 	bl	80049ac <__wrap___aeabi_dmul>
 8000538:	e9c4 0100 	strd	r0, r1, [r4]
 800053c:	214e      	movs	r1, #78	; 0x4e
 800053e:	e9d4 2300 	ldrd	r2, r3, [r4]
 8000542:	e9cd b102 	strd	fp, r1, [sp, #8]
 8000546:	a122      	add	r1, pc, #136	; (adr r1, 80005d0 <test_aeabi_dmul+0x180>)
 8000548:	e9d1 0100 	ldrd	r0, r1, [r1]
 800054c:	e9cd 2300 	strd	r2, r3, [sp]
 8000550:	4642      	mov	r2, r8
 8000552:	464b      	mov	r3, r9
 8000554:	f004 f97c 	bl	8004850 <UnityAssertDoublesWithin>
/Users/Luppy/stm32bluepill-unittest/src/../lib/nano-float/test/test.c:79
x = -2205.1969; y = -270.8886;  r = __wrap___aeabi_dmul(x, y);   TEST_ASSERT_EQUAL_DOUBLE( 597362.70096534    , r );
 8000558:	a319      	add	r3, pc, #100	; (adr r3, 80005c0 <test_aeabi_dmul+0x170>)
 800055a:	e9d3 2300 	ldrd	r2, r3, [r3]
 800055e:	e9ca 2300 	strd	r2, r3, [sl]
 8000562:	e9c5 6700 	strd	r6, r7, [r5]
 8000566:	e9da 0100 	ldrd	r0, r1, [sl]
 800056a:	e9d5 2300 	ldrd	r2, r3, [r5]
 800056e:	f004 fa1d 	bl	80049ac <__wrap___aeabi_dmul>
 8000572:	e9c4 0100 	strd	r0, r1, [r4]
 8000576:	214f      	movs	r1, #79	; 0x4f
 8000578:	e9d4 2300 	ldrd	r2, r3, [r4]
 800057c:	e9cd b102 	strd	fp, r1, [sp, #8]
 8000580:	a10b      	add	r1, pc, #44	; (adr r1, 80005b0 <test_aeabi_dmul+0x160>)
 8000582:	e9d1 0100 	ldrd	r0, r1, [r1]
 8000586:	e9cd 2300 	strd	r2, r3, [sp]
 800058a:	a30b      	add	r3, pc, #44	; (adr r3, 80005b8 <test_aeabi_dmul+0x168>)
 800058c:	e9d3 2300 	ldrd	r2, r3, [r3]
 8000590:	f004 f95e 	bl	8004850 <UnityAssertDoublesWithin>
/Users/Luppy/stm32bluepill-unittest/src/../lib/nano-float/test/test.c:80
}
 8000594:	b005      	add	sp, #20
 8000596:	e8bd 8ff0 	ldmia.w	sp!, {r4, r5, r6, r7, r8, r9, sl, fp, pc}
 800059a:	bf00      	nop
 800059c:	f3af 8000 	nop.w
 80005a0:	d013a92a 	.word	0xd013a92a
 80005a4:	40a13a64 	.word	0x40a13a64
 80005a8:	b4a2339c 	.word	0xb4a2339c
 80005ac:	4070ee37 	.word	0x4070ee37
 80005b0:	620fe234 	.word	0x620fe234
 80005b4:	3fe31d98 	.word	0x3fe31d98
 80005b8:	66e4edd6 	.word	0x66e4edd6
 80005bc:	41223ae5 	.word	0x41223ae5
 80005c0:	d013a92a 	.word	0xd013a92a
 80005c4:	c0a13a64 	.word	0xc0a13a64
 80005c8:	66e4edd6 	.word	0x66e4edd6
 80005cc:	c1223ae5 	.word	0xc1223ae5
 80005d0:	620fe234 	.word	0x620fe234
 80005d4:	bfe31d98 	.word	0xbfe31d98
 80005d8:	b4a2339c 	.word	0xb4a2339c
 80005dc:	c070ee37 	.word	0xc070ee37
 80005e0:	20000028 	.word	0x20000028
 80005e4:	20000000 	.word	0x20000000
 80005e8:	20000018 	.word	0x20000018
 80005ec:	00000000 	.word	0x00000000

080005f0 <test_aeabi_dadd>:
test_aeabi_dadd():
/Users/Luppy/stm32bluepill-unittest/src/../lib/nano-float/test/test.c:82
void test_aeabi_dadd(void) {   
 80005f0:	e92d 4ff0 	stmdb	sp!, {r4, r5, r6, r7, r8, r9, sl, fp, lr}
/Users/Luppy/stm32bluepill-unittest/src/../lib/nano-float/test/test.c:83
x = 2205.1969;  y = 270.8886;  r = __wrap___aeabi_dadd(x, y);   TEST_ASSERT_EQUAL_DOUBLE( 2476.0855          , r );
 80005f4:	a742      	add	r7, pc, #264	; (adr r7, 8000700 <test_aeabi_dadd+0x110>)
 80005f6:	e9d7 6700 	ldrd	r6, r7, [r7]
 80005fa:	f20f 190c 	addw	r9, pc, #268	; 0x10c
 80005fe:	e9d9 8900 	ldrd	r8, r9, [r9]
 8000602:	f8df a164 	ldr.w	sl, [pc, #356]	; 8000768 <test_aeabi_dadd+0x178>
 8000606:	4d56      	ldr	r5, [pc, #344]	; (8000760 <test_aeabi_dadd+0x170>)
 8000608:	e9ca 6700 	strd	r6, r7, [sl]
 800060c:	e9c5 8900 	strd	r8, r9, [r5]
/Users/Luppy/stm32bluepill-unittest/src/../lib/nano-float/test/test.c:82
void test_aeabi_dadd(void) {   
 8000610:	b085      	sub	sp, #20
/Users/Luppy/stm32bluepill-unittest/src/../lib/nano-float/test/test.c:83
x = 2205.1969;  y = 270.8886;  r = __wrap___aeabi_dadd(x, y);   TEST_ASSERT_EQUAL_DOUBLE( 2476.0855          , r );
 8000612:	e9da 0100 	ldrd	r0, r1, [sl]
 8000616:	e9d5 2300 	ldrd	r2, r3, [r5]
 800061a:	f004 f9df 	bl	80049dc <__wrap___aeabi_dadd>
 800061e:	4c51      	ldr	r4, [pc, #324]	; (8000764 <test_aeabi_dadd+0x174>)
 8000620:	f04f 0b00 	mov.w	fp, #0
 8000624:	e9c4 0100 	strd	r0, r1, [r4]
 8000628:	2153      	movs	r1, #83	; 0x53
 800062a:	e9d4 2300 	ldrd	r2, r3, [r4]
 800062e:	e9cd b102 	strd	fp, r1, [sp, #8]
 8000632:	a137      	add	r1, pc, #220	; (adr r1, 8000710 <test_aeabi_dadd+0x120>)
 8000634:	e9d1 0100 	ldrd	r0, r1, [r1]
 8000638:	e9cd 2300 	strd	r2, r3, [sp]
 800063c:	a336      	add	r3, pc, #216	; (adr r3, 8000718 <test_aeabi_dadd+0x128>)
 800063e:	e9d3 2300 	ldrd	r2, r3, [r3]
 8000642:	f004 f905 	bl	8004850 <UnityAssertDoublesWithin>
/Users/Luppy/stm32bluepill-unittest/src/../lib/nano-float/test/test.c:84
x = -2205.1969; y = 270.8886;  r = __wrap___aeabi_dadd(x, y);   TEST_ASSERT_EQUAL_DOUBLE( -1934.3083         , r );
 8000646:	a336      	add	r3, pc, #216	; (adr r3, 8000720 <test_aeabi_dadd+0x130>)
 8000648:	e9d3 2300 	ldrd	r2, r3, [r3]
 800064c:	e9ca 2300 	strd	r2, r3, [sl]
 8000650:	e9c5 8900 	strd	r8, r9, [r5]
 8000654:	e9da 0100 	ldrd	r0, r1, [sl]
 8000658:	e9d5 2300 	ldrd	r2, r3, [r5]
 800065c:	f004 f9be 	bl	80049dc <__wrap___aeabi_dadd>
 8000660:	e9c4 0100 	strd	r0, r1, [r4]
 8000664:	2154      	movs	r1, #84	; 0x54
 8000666:	e9d4 2300 	ldrd	r2, r3, [r4]
 800066a:	e9cd b102 	strd	fp, r1, [sp, #8]
 800066e:	a12e      	add	r1, pc, #184	; (adr r1, 8000728 <test_aeabi_dadd+0x138>)
 8000670:	e9d1 0100 	ldrd	r0, r1, [r1]
 8000674:	e9cd 2300 	strd	r2, r3, [sp]
 8000678:	a32d      	add	r3, pc, #180	; (adr r3, 8000730 <test_aeabi_dadd+0x140>)
 800067a:	e9d3 2300 	ldrd	r2, r3, [r3]
 800067e:	f004 f8e7 	bl	8004850 <UnityAssertDoublesWithin>
/Users/Luppy/stm32bluepill-unittest/src/../lib/nano-float/test/test.c:85
x = 2205.1969;  y = -270.8886; r = __wrap___aeabi_dadd(x, y);   TEST_ASSERT_EQUAL_DOUBLE( 1934.3083          , r );
 8000682:	e9ca 6700 	strd	r6, r7, [sl]
 8000686:	a72c      	add	r7, pc, #176	; (adr r7, 8000738 <test_aeabi_dadd+0x148>)
 8000688:	e9d7 6700 	ldrd	r6, r7, [r7]
 800068c:	e9c5 6700 	strd	r6, r7, [r5]
 8000690:	e9da 0100 	ldrd	r0, r1, [sl]
 8000694:	e9d5 2300 	ldrd	r2, r3, [r5]
 8000698:	f004 f9a0 	bl	80049dc <__wrap___aeabi_dadd>
 800069c:	e9c4 0100 	strd	r0, r1, [r4]
 80006a0:	2155      	movs	r1, #85	; 0x55
 80006a2:	e9d4 2300 	ldrd	r2, r3, [r4]
 80006a6:	e9cd b102 	strd	fp, r1, [sp, #8]
 80006aa:	a125      	add	r1, pc, #148	; (adr r1, 8000740 <test_aeabi_dadd+0x150>)
 80006ac:	e9d1 0100 	ldrd	r0, r1, [r1]
 80006b0:	e9cd 2300 	strd	r2, r3, [sp]
 80006b4:	a324      	add	r3, pc, #144	; (adr r3, 8000748 <test_aeabi_dadd+0x158>)
 80006b6:	e9d3 2300 	ldrd	r2, r3, [r3]
 80006ba:	f004 f8c9 	bl	8004850 <UnityAssertDoublesWithin>
/Users/Luppy/stm32bluepill-unittest/src/../lib/nano-float/test/test.c:86
x = -2205.1969; y = -270.8886; r = __wrap___aeabi_dadd(x, y);   TEST_ASSERT_EQUAL_DOUBLE( -2476.0855         , r );
 80006be:	a318      	add	r3, pc, #96	; (adr r3, 8000720 <test_aeabi_dadd+0x130>)
 80006c0:	e9d3 2300 	ldrd	r2, r3, [r3]
 80006c4:	e9ca 2300 	strd	r2, r3, [sl]
 80006c8:	e9c5 6700 	strd	r6, r7, [r5]
 80006cc:	e9da 0100 	ldrd	r0, r1, [sl]
 80006d0:	e9d5 2300 	ldrd	r2, r3, [r5]
 80006d4:	f004 f982 	bl	80049dc <__wrap___aeabi_dadd>
 80006d8:	e9c4 0100 	strd	r0, r1, [r4]
 80006dc:	2156      	movs	r1, #86	; 0x56
 80006de:	e9d4 2300 	ldrd	r2, r3, [r4]
 80006e2:	e9cd b102 	strd	fp, r1, [sp, #8]
 80006e6:	a11a      	add	r1, pc, #104	; (adr r1, 8000750 <test_aeabi_dadd+0x160>)
 80006e8:	e9d1 0100 	ldrd	r0, r1, [r1]
 80006ec:	e9cd 2300 	strd	r2, r3, [sp]
 80006f0:	a319      	add	r3, pc, #100	; (adr r3, 8000758 <test_aeabi_dadd+0x168>)
 80006f2:	e9d3 2300 	ldrd	r2, r3, [r3]
 80006f6:	f004 f8ab 	bl	8004850 <UnityAssertDoublesWithin>
/Users/Luppy/stm32bluepill-unittest/src/../lib/nano-float/test/test.c:87
}
 80006fa:	b005      	add	sp, #20
 80006fc:	e8bd 8ff0 	ldmia.w	sp!, {r4, r5, r6, r7, r8, r9, sl, fp, pc}
 8000700:	d013a92a 	.word	0xd013a92a
 8000704:	40a13a64 	.word	0x40a13a64
 8000708:	b4a2339c 	.word	0xb4a2339c
 800070c:	4070ee37 	.word	0x4070ee37
 8000710:	47d3c2fa 	.word	0x47d3c2fa
 8000714:	3f6448ba 	.word	0x3f6448ba
 8000718:	c6a7ef9e 	.word	0xc6a7ef9e
 800071c:	40a3582b 	.word	0x40a3582b
 8000720:	d013a92a 	.word	0xd013a92a
 8000724:	c0a13a64 	.word	0xc0a13a64
 8000728:	b8e36ea1 	.word	0xb8e36ea1
 800072c:	bf5fb113 	.word	0xbf5fb113
 8000730:	b2fec56d 	.word	0xb2fec56d
 8000734:	c09e393b 	.word	0xc09e393b
 8000738:	b4a2339c 	.word	0xb4a2339c
 800073c:	c070ee37 	.word	0xc070ee37
 8000740:	b8e36ea1 	.word	0xb8e36ea1
 8000744:	3f5fb113 	.word	0x3f5fb113
 8000748:	b2fec56d 	.word	0xb2fec56d
 800074c:	409e393b 	.word	0x409e393b
 8000750:	47d3c2fa 	.word	0x47d3c2fa
 8000754:	bf6448ba 	.word	0xbf6448ba
 8000758:	c6a7ef9e 	.word	0xc6a7ef9e
 800075c:	c0a3582b 	.word	0xc0a3582b
 8000760:	20000028 	.word	0x20000028
 8000764:	20000000 	.word	0x20000000
 8000768:	20000018 	.word	0x20000018
 800076c:	00000000 	.word	0x00000000

08000770 <test_aeabi_dsub>:
test_aeabi_dsub():
/Users/Luppy/stm32bluepill-unittest/src/../lib/nano-float/test/test.c:89
void test_aeabi_dsub(void) {    
 8000770:	e92d 4ff0 	stmdb	sp!, {r4, r5, r6, r7, r8, r9, sl, fp, lr}
/Users/Luppy/stm32bluepill-unittest/src/../lib/nano-float/test/test.c:90
x = 2205.1969;  y = 270.8886;  r = __wrap___aeabi_dsub(x, y);   TEST_ASSERT_EQUAL_DOUBLE( 1934.3083          , r );
 8000774:	a742      	add	r7, pc, #264	; (adr r7, 8000880 <test_aeabi_dsub+0x110>)
 8000776:	e9d7 6700 	ldrd	r6, r7, [r7]
 800077a:	f20f 190c 	addw	r9, pc, #268	; 0x10c
 800077e:	e9d9 8900 	ldrd	r8, r9, [r9]
 8000782:	f8df a164 	ldr.w	sl, [pc, #356]	; 80008e8 <test_aeabi_dsub+0x178>
 8000786:	4d56      	ldr	r5, [pc, #344]	; (80008e0 <test_aeabi_dsub+0x170>)
 8000788:	e9ca 6700 	strd	r6, r7, [sl]
 800078c:	e9c5 8900 	strd	r8, r9, [r5]
/Users/Luppy/stm32bluepill-unittest/src/../lib/nano-float/test/test.c:89
void test_aeabi_dsub(void) {    
 8000790:	b085      	sub	sp, #20
/Users/Luppy/stm32bluepill-unittest/src/../lib/nano-float/test/test.c:90
x = 2205.1969;  y = 270.8886;  r = __wrap___aeabi_dsub(x, y);   TEST_ASSERT_EQUAL_DOUBLE( 1934.3083          , r );
 8000792:	e9da 0100 	ldrd	r0, r1, [sl]
 8000796:	e9d5 2300 	ldrd	r2, r3, [r5]
 800079a:	f004 f937 	bl	8004a0c <__wrap___aeabi_dsub>
 800079e:	4c51      	ldr	r4, [pc, #324]	; (80008e4 <test_aeabi_dsub+0x174>)
 80007a0:	f04f 0b00 	mov.w	fp, #0
 80007a4:	e9c4 0100 	strd	r0, r1, [r4]
 80007a8:	215a      	movs	r1, #90	; 0x5a
 80007aa:	e9d4 2300 	ldrd	r2, r3, [r4]
 80007ae:	e9cd b102 	strd	fp, r1, [sp, #8]
 80007b2:	a137      	add	r1, pc, #220	; (adr r1, 8000890 <test_aeabi_dsub+0x120>)
 80007b4:	e9d1 0100 	ldrd	r0, r1, [r1]
 80007b8:	e9cd 2300 	strd	r2, r3, [sp]
 80007bc:	a336      	add	r3, pc, #216	; (adr r3, 8000898 <test_aeabi_dsub+0x128>)
 80007be:	e9d3 2300 	ldrd	r2, r3, [r3]
 80007c2:	f004 f845 	bl	8004850 <UnityAssertDoublesWithin>
/Users/Luppy/stm32bluepill-unittest/src/../lib/nano-float/test/test.c:91
x = -2205.1969; y = 270.8886;  r = __wrap___aeabi_dsub(x, y);   TEST_ASSERT_EQUAL_DOUBLE( -2476.0855         , r );
 80007c6:	a336      	add	r3, pc, #216	; (adr r3, 80008a0 <test_aeabi_dsub+0x130>)
 80007c8:	e9d3 2300 	ldrd	r2, r3, [r3]
 80007cc:	e9ca 2300 	strd	r2, r3, [sl]
 80007d0:	e9c5 8900 	strd	r8, r9, [r5]
 80007d4:	e9da 0100 	ldrd	r0, r1, [sl]
 80007d8:	e9d5 2300 	ldrd	r2, r3, [r5]
 80007dc:	f004 f916 	bl	8004a0c <__wrap___aeabi_dsub>
 80007e0:	e9c4 0100 	strd	r0, r1, [r4]
 80007e4:	215b      	movs	r1, #91	; 0x5b
 80007e6:	e9d4 2300 	ldrd	r2, r3, [r4]
 80007ea:	e9cd b102 	strd	fp, r1, [sp, #8]
 80007ee:	a12e      	add	r1, pc, #184	; (adr r1, 80008a8 <test_aeabi_dsub+0x138>)
 80007f0:	e9d1 0100 	ldrd	r0, r1, [r1]
 80007f4:	e9cd 2300 	strd	r2, r3, [sp]
 80007f8:	a32d      	add	r3, pc, #180	; (adr r3, 80008b0 <test_aeabi_dsub+0x140>)
 80007fa:	e9d3 2300 	ldrd	r2, r3, [r3]
 80007fe:	f004 f827 	bl	8004850 <UnityAssertDoublesWithin>
/Users/Luppy/stm32bluepill-unittest/src/../lib/nano-float/test/test.c:92
x = 2205.1969;  y = -270.8886; r = __wrap___aeabi_dsub(x, y);   TEST_ASSERT_EQUAL_DOUBLE( 2476.0855          , r );
 8000802:	e9ca 6700 	strd	r6, r7, [sl]
 8000806:	a72c      	add	r7, pc, #176	; (adr r7, 80008b8 <test_aeabi_dsub+0x148>)
 8000808:	e9d7 6700 	ldrd	r6, r7, [r7]
 800080c:	e9c5 6700 	strd	r6, r7, [r5]
 8000810:	e9da 0100 	ldrd	r0, r1, [sl]
 8000814:	e9d5 2300 	ldrd	r2, r3, [r5]
 8000818:	f004 f8f8 	bl	8004a0c <__wrap___aeabi_dsub>
 800081c:	e9c4 0100 	strd	r0, r1, [r4]
 8000820:	215c      	movs	r1, #92	; 0x5c
 8000822:	e9d4 2300 	ldrd	r2, r3, [r4]
 8000826:	e9cd b102 	strd	fp, r1, [sp, #8]
 800082a:	a125      	add	r1, pc, #148	; (adr r1, 80008c0 <test_aeabi_dsub+0x150>)
 800082c:	e9d1 0100 	ldrd	r0, r1, [r1]
 8000830:	e9cd 2300 	strd	r2, r3, [sp]
 8000834:	a324      	add	r3, pc, #144	; (adr r3, 80008c8 <test_aeabi_dsub+0x158>)
 8000836:	e9d3 2300 	ldrd	r2, r3, [r3]
 800083a:	f004 f809 	bl	8004850 <UnityAssertDoublesWithin>
/Users/Luppy/stm32bluepill-unittest/src/../lib/nano-float/test/test.c:93
x = -2205.1969; y = -270.8886; r = __wrap___aeabi_dsub(x, y);   TEST_ASSERT_EQUAL_DOUBLE( -1934.3083         , r ); 
 800083e:	a318      	add	r3, pc, #96	; (adr r3, 80008a0 <test_aeabi_dsub+0x130>)
 8000840:	e9d3 2300 	ldrd	r2, r3, [r3]
 8000844:	e9ca 2300 	strd	r2, r3, [sl]
 8000848:	e9c5 6700 	strd	r6, r7, [r5]
 800084c:	e9da 0100 	ldrd	r0, r1, [sl]
 8000850:	e9d5 2300 	ldrd	r2, r3, [r5]
 8000854:	f004 f8da 	bl	8004a0c <__wrap___aeabi_dsub>
 8000858:	e9c4 0100 	strd	r0, r1, [r4]
 800085c:	215d      	movs	r1, #93	; 0x5d
 800085e:	e9d4 2300 	ldrd	r2, r3, [r4]
 8000862:	e9cd b102 	strd	fp, r1, [sp, #8]
 8000866:	a11a      	add	r1, pc, #104	; (adr r1, 80008d0 <test_aeabi_dsub+0x160>)
 8000868:	e9d1 0100 	ldrd	r0, r1, [r1]
 800086c:	e9cd 2300 	strd	r2, r3, [sp]
 8000870:	a319      	add	r3, pc, #100	; (adr r3, 80008d8 <test_aeabi_dsub+0x168>)
 8000872:	e9d3 2300 	ldrd	r2, r3, [r3]
 8000876:	f003 ffeb 	bl	8004850 <UnityAssertDoublesWithin>
/Users/Luppy/stm32bluepill-unittest/src/../lib/nano-float/test/test.c:94
}
 800087a:	b005      	add	sp, #20
 800087c:	e8bd 8ff0 	ldmia.w	sp!, {r4, r5, r6, r7, r8, r9, sl, fp, pc}
 8000880:	d013a92a 	.word	0xd013a92a
 8000884:	40a13a64 	.word	0x40a13a64
 8000888:	b4a2339c 	.word	0xb4a2339c
 800088c:	4070ee37 	.word	0x4070ee37
 8000890:	b8e36ea1 	.word	0xb8e36ea1
 8000894:	3f5fb113 	.word	0x3f5fb113
 8000898:	b2fec56d 	.word	0xb2fec56d
 800089c:	409e393b 	.word	0x409e393b
 80008a0:	d013a92a 	.word	0xd013a92a
 80008a4:	c0a13a64 	.word	0xc0a13a64
 80008a8:	47d3c2fa 	.word	0x47d3c2fa
 80008ac:	bf6448ba 	.word	0xbf6448ba
 80008b0:	c6a7ef9e 	.word	0xc6a7ef9e
 80008b4:	c0a3582b 	.word	0xc0a3582b
 80008b8:	b4a2339c 	.word	0xb4a2339c
 80008bc:	c070ee37 	.word	0xc070ee37
 80008c0:	47d3c2fa 	.word	0x47d3c2fa
 80008c4:	3f6448ba 	.word	0x3f6448ba
 80008c8:	c6a7ef9e 	.word	0xc6a7ef9e
 80008cc:	40a3582b 	.word	0x40a3582b
 80008d0:	b8e36ea1 	.word	0xb8e36ea1
 80008d4:	bf5fb113 	.word	0xbf5fb113
 80008d8:	b2fec56d 	.word	0xb2fec56d
 80008dc:	c09e393b 	.word	0xc09e393b
 80008e0:	20000028 	.word	0x20000028
 80008e4:	20000000 	.word	0x20000000
 80008e8:	20000018 	.word	0x20000018
 80008ec:	00000000 	.word	0x00000000

080008f0 <test_aeabi_dcmpeq>:
test_aeabi_dcmpeq():
/Users/Luppy/stm32bluepill-unittest/src/../lib/nano-float/test/test.c:96
void test_aeabi_dcmpeq(void) {
 80008f0:	e92d 4ff7 	stmdb	sp!, {r0, r1, r2, r4, r5, r6, r7, r8, r9, sl, fp, lr}
/Users/Luppy/stm32bluepill-unittest/src/../lib/nano-float/test/test.c:97
x = 2205.196;  y = 2205.196;  ri = __wrap___aeabi_dcmpeq(x, y); TEST_ASSERT_EQUAL_INT( 1                  , ri );
 80008f4:	f20f 1960 	addw	r9, pc, #352	; 0x160
 80008f8:	e9d9 8900 	ldrd	r8, r9, [r9]
 80008fc:	4e62      	ldr	r6, [pc, #392]	; (8000a88 <test_aeabi_dcmpeq+0x198>)
 80008fe:	4d63      	ldr	r5, [pc, #396]	; (8000a8c <test_aeabi_dcmpeq+0x19c>)
 8000900:	e9c6 8900 	strd	r8, r9, [r6]
 8000904:	e9c5 8900 	strd	r8, r9, [r5]
 8000908:	e9d6 0100 	ldrd	r0, r1, [r6]
 800090c:	e9d5 2300 	ldrd	r2, r3, [r5]
 8000910:	f004 f894 	bl	8004a3c <__wrap___aeabi_dcmpeq>
 8000914:	2714      	movs	r7, #20
 8000916:	4c5e      	ldr	r4, [pc, #376]	; (8000a90 <test_aeabi_dcmpeq+0x1a0>)
 8000918:	9700      	str	r7, [sp, #0]
 800091a:	6020      	str	r0, [r4, #0]
 800091c:	6821      	ldr	r1, [r4, #0]
 800091e:	2361      	movs	r3, #97	; 0x61
 8000920:	2200      	movs	r2, #0
 8000922:	2001      	movs	r0, #1
 8000924:	f003 ff3c 	bl	80047a0 <UnityAssertEqualNumber>
/Users/Luppy/stm32bluepill-unittest/src/../lib/nano-float/test/test.c:98
x = 2205.196;  y = 2205.195;  ri = __wrap___aeabi_dcmpeq(x, y); TEST_ASSERT_EQUAL_INT( 0                  , ri );
 8000928:	a34d      	add	r3, pc, #308	; (adr r3, 8000a60 <test_aeabi_dcmpeq+0x170>)
 800092a:	e9d3 2300 	ldrd	r2, r3, [r3]
 800092e:	e9c6 8900 	strd	r8, r9, [r6]
 8000932:	e9c5 2300 	strd	r2, r3, [r5]
 8000936:	e9d6 0100 	ldrd	r0, r1, [r6]
 800093a:	e9d5 2300 	ldrd	r2, r3, [r5]
 800093e:	f004 f87d 	bl	8004a3c <__wrap___aeabi_dcmpeq>
 8000942:	2200      	movs	r2, #0
 8000944:	6020      	str	r0, [r4, #0]
 8000946:	6821      	ldr	r1, [r4, #0]
 8000948:	4610      	mov	r0, r2
 800094a:	9700      	str	r7, [sp, #0]
 800094c:	2362      	movs	r3, #98	; 0x62
 800094e:	f003 ff27 	bl	80047a0 <UnityAssertEqualNumber>
/Users/Luppy/stm32bluepill-unittest/src/../lib/nano-float/test/test.c:99
x = 2205.196;  y = 2205.197;  ri = __wrap___aeabi_dcmpeq(x, y); TEST_ASSERT_EQUAL_INT( 0                  , ri );
 8000952:	a345      	add	r3, pc, #276	; (adr r3, 8000a68 <test_aeabi_dcmpeq+0x178>)
 8000954:	e9d3 2300 	ldrd	r2, r3, [r3]
 8000958:	e9c6 8900 	strd	r8, r9, [r6]
 800095c:	e9c5 2300 	strd	r2, r3, [r5]
 8000960:	e9d6 0100 	ldrd	r0, r1, [r6]
 8000964:	e9d5 2300 	ldrd	r2, r3, [r5]
 8000968:	f004 f868 	bl	8004a3c <__wrap___aeabi_dcmpeq>
 800096c:	2200      	movs	r2, #0
/Users/Luppy/stm32bluepill-unittest/src/../lib/nano-float/test/test.c:100
x = 2205.196;  y = 0;         ri = __wrap___aeabi_dcmpeq(x, y); TEST_ASSERT_EQUAL_INT( 0                  , ri );
 800096e:	f04f 0a00 	mov.w	sl, #0
 8000972:	f04f 0b00 	mov.w	fp, #0
/Users/Luppy/stm32bluepill-unittest/src/../lib/nano-float/test/test.c:99
x = 2205.196;  y = 2205.197;  ri = __wrap___aeabi_dcmpeq(x, y); TEST_ASSERT_EQUAL_INT( 0                  , ri );
 8000976:	6020      	str	r0, [r4, #0]
 8000978:	6821      	ldr	r1, [r4, #0]
 800097a:	4610      	mov	r0, r2
 800097c:	9700      	str	r7, [sp, #0]
 800097e:	2363      	movs	r3, #99	; 0x63
 8000980:	f003 ff0e 	bl	80047a0 <UnityAssertEqualNumber>
/Users/Luppy/stm32bluepill-unittest/src/../lib/nano-float/test/test.c:100
x = 2205.196;  y = 0;         ri = __wrap___aeabi_dcmpeq(x, y); TEST_ASSERT_EQUAL_INT( 0                  , ri );
 8000984:	e9c6 8900 	strd	r8, r9, [r6]
/Users/Luppy/stm32bluepill-unittest/src/../lib/nano-float/test/test.c:101
x = -2205.196; y = -2205.196; ri = __wrap___aeabi_dcmpeq(x, y); TEST_ASSERT_EQUAL_INT( 1                  , ri );
 8000988:	f20f 09e4 	addw	r9, pc, #228	; 0xe4
 800098c:	e9d9 8900 	ldrd	r8, r9, [r9]
/Users/Luppy/stm32bluepill-unittest/src/../lib/nano-float/test/test.c:100
x = 2205.196;  y = 0;         ri = __wrap___aeabi_dcmpeq(x, y); TEST_ASSERT_EQUAL_INT( 0                  , ri );
 8000990:	e9c5 ab00 	strd	sl, fp, [r5]
 8000994:	e9d6 0100 	ldrd	r0, r1, [r6]
 8000998:	e9d5 2300 	ldrd	r2, r3, [r5]
 800099c:	f004 f84e 	bl	8004a3c <__wrap___aeabi_dcmpeq>
 80009a0:	2200      	movs	r2, #0
 80009a2:	6020      	str	r0, [r4, #0]
 80009a4:	6821      	ldr	r1, [r4, #0]
 80009a6:	4610      	mov	r0, r2
 80009a8:	9700      	str	r7, [sp, #0]
 80009aa:	2364      	movs	r3, #100	; 0x64
 80009ac:	f003 fef8 	bl	80047a0 <UnityAssertEqualNumber>
/Users/Luppy/stm32bluepill-unittest/src/../lib/nano-float/test/test.c:101
x = -2205.196; y = -2205.196; ri = __wrap___aeabi_dcmpeq(x, y); TEST_ASSERT_EQUAL_INT( 1                  , ri );
 80009b0:	e9c6 8900 	strd	r8, r9, [r6]
 80009b4:	e9c5 8900 	strd	r8, r9, [r5]
 80009b8:	e9d6 0100 	ldrd	r0, r1, [r6]
 80009bc:	e9d5 2300 	ldrd	r2, r3, [r5]
 80009c0:	f004 f83c 	bl	8004a3c <__wrap___aeabi_dcmpeq>
 80009c4:	6020      	str	r0, [r4, #0]
 80009c6:	6821      	ldr	r1, [r4, #0]
 80009c8:	9700      	str	r7, [sp, #0]
 80009ca:	2365      	movs	r3, #101	; 0x65
 80009cc:	2200      	movs	r2, #0
 80009ce:	2001      	movs	r0, #1
 80009d0:	f003 fee6 	bl	80047a0 <UnityAssertEqualNumber>
/Users/Luppy/stm32bluepill-unittest/src/../lib/nano-float/test/test.c:102
x = -2205.196; y = -2205.195; ri = __wrap___aeabi_dcmpeq(x, y); TEST_ASSERT_EQUAL_INT( 0                  , ri );
 80009d4:	a328      	add	r3, pc, #160	; (adr r3, 8000a78 <test_aeabi_dcmpeq+0x188>)
 80009d6:	e9d3 2300 	ldrd	r2, r3, [r3]
 80009da:	e9c6 8900 	strd	r8, r9, [r6]
 80009de:	e9c5 2300 	strd	r2, r3, [r5]
 80009e2:	e9d6 0100 	ldrd	r0, r1, [r6]
 80009e6:	e9d5 2300 	ldrd	r2, r3, [r5]
 80009ea:	f004 f827 	bl	8004a3c <__wrap___aeabi_dcmpeq>
 80009ee:	2200      	movs	r2, #0
 80009f0:	6020      	str	r0, [r4, #0]
 80009f2:	6821      	ldr	r1, [r4, #0]
 80009f4:	4610      	mov	r0, r2
 80009f6:	9700      	str	r7, [sp, #0]
 80009f8:	2366      	movs	r3, #102	; 0x66
 80009fa:	f003 fed1 	bl	80047a0 <UnityAssertEqualNumber>
/Users/Luppy/stm32bluepill-unittest/src/../lib/nano-float/test/test.c:103
x = -2205.196; y = -2205.197; ri = __wrap___aeabi_dcmpeq(x, y); TEST_ASSERT_EQUAL_INT( 0                  , ri );
 80009fe:	a320      	add	r3, pc, #128	; (adr r3, 8000a80 <test_aeabi_dcmpeq+0x190>)
 8000a00:	e9d3 2300 	ldrd	r2, r3, [r3]
 8000a04:	e9c6 8900 	strd	r8, r9, [r6]
 8000a08:	e9c5 2300 	strd	r2, r3, [r5]
 8000a0c:	e9d6 0100 	ldrd	r0, r1, [r6]
 8000a10:	e9d5 2300 	ldrd	r2, r3, [r5]
 8000a14:	f004 f812 	bl	8004a3c <__wrap___aeabi_dcmpeq>
 8000a18:	2200      	movs	r2, #0
 8000a1a:	6020      	str	r0, [r4, #0]
 8000a1c:	6821      	ldr	r1, [r4, #0]
 8000a1e:	4610      	mov	r0, r2
 8000a20:	9700      	str	r7, [sp, #0]
 8000a22:	2367      	movs	r3, #103	; 0x67
 8000a24:	f003 febc 	bl	80047a0 <UnityAssertEqualNumber>
/Users/Luppy/stm32bluepill-unittest/src/../lib/nano-float/test/test.c:104
x = -2205.196; y = 0;         ri = __wrap___aeabi_dcmpeq(x, y); TEST_ASSERT_EQUAL_INT( 0                  , ri );
 8000a28:	e9c6 8900 	strd	r8, r9, [r6]
 8000a2c:	e9c5 ab00 	strd	sl, fp, [r5]
 8000a30:	e9d6 0100 	ldrd	r0, r1, [r6]
 8000a34:	e9d5 2300 	ldrd	r2, r3, [r5]
 8000a38:	f004 f800 	bl	8004a3c <__wrap___aeabi_dcmpeq>
 8000a3c:	2200      	movs	r2, #0
 8000a3e:	6020      	str	r0, [r4, #0]
 8000a40:	6821      	ldr	r1, [r4, #0]
 8000a42:	9700      	str	r7, [sp, #0]
 8000a44:	2368      	movs	r3, #104	; 0x68
 8000a46:	4610      	mov	r0, r2
 8000a48:	f003 feaa 	bl	80047a0 <UnityAssertEqualNumber>
/Users/Luppy/stm32bluepill-unittest/src/../lib/nano-float/test/test.c:105
}
 8000a4c:	b003      	add	sp, #12
 8000a4e:	e8bd 8ff0 	ldmia.w	sp!, {r4, r5, r6, r7, r8, r9, sl, fp, pc}
 8000a52:	bf00      	nop
 8000a54:	f3af 8000 	nop.w
 8000a58:	5a1cac08 	.word	0x5a1cac08
 8000a5c:	40a13a64 	.word	0x40a13a64
 8000a60:	d70a3d71 	.word	0xd70a3d71
 8000a64:	40a13a63 	.word	0x40a13a63
 8000a68:	dd2f1aa0 	.word	0xdd2f1aa0
 8000a6c:	40a13a64 	.word	0x40a13a64
 8000a70:	5a1cac08 	.word	0x5a1cac08
 8000a74:	c0a13a64 	.word	0xc0a13a64
 8000a78:	d70a3d71 	.word	0xd70a3d71
 8000a7c:	c0a13a63 	.word	0xc0a13a63
 8000a80:	dd2f1aa0 	.word	0xdd2f1aa0
 8000a84:	c0a13a64 	.word	0xc0a13a64
 8000a88:	20000018 	.word	0x20000018
 8000a8c:	20000028 	.word	0x20000028
 8000a90:	2000000c 	.word	0x2000000c
 8000a94:	00000000 	.word	0x00000000

08000a98 <test_aeabi_dcmplt>:
test_aeabi_dcmplt():
/Users/Luppy/stm32bluepill-unittest/src/../lib/nano-float/test/test.c:107
void test_aeabi_dcmplt(void) {
 8000a98:	e92d 4ff7 	stmdb	sp!, {r0, r1, r2, r4, r5, r6, r7, r8, r9, sl, fp, lr}
/Users/Luppy/stm32bluepill-unittest/src/../lib/nano-float/test/test.c:108
x = 2205.196;  y = 2205.196;  ri = __wrap___aeabi_dcmplt(x, y); TEST_ASSERT_EQUAL_INT( 0                  , ri );
 8000a9c:	f20f 1960 	addw	r9, pc, #352	; 0x160
 8000aa0:	e9d9 8900 	ldrd	r8, r9, [r9]
 8000aa4:	4e62      	ldr	r6, [pc, #392]	; (8000c30 <test_aeabi_dcmplt+0x198>)
 8000aa6:	4d63      	ldr	r5, [pc, #396]	; (8000c34 <test_aeabi_dcmplt+0x19c>)
 8000aa8:	e9c6 8900 	strd	r8, r9, [r6]
 8000aac:	e9c5 8900 	strd	r8, r9, [r5]
 8000ab0:	e9d6 0100 	ldrd	r0, r1, [r6]
 8000ab4:	e9d5 2300 	ldrd	r2, r3, [r5]
 8000ab8:	f003 ffda 	bl	8004a70 <__wrap___aeabi_dcmplt>
 8000abc:	2714      	movs	r7, #20
 8000abe:	2200      	movs	r2, #0
 8000ac0:	4c5d      	ldr	r4, [pc, #372]	; (8000c38 <test_aeabi_dcmplt+0x1a0>)
 8000ac2:	9700      	str	r7, [sp, #0]
 8000ac4:	6020      	str	r0, [r4, #0]
 8000ac6:	6821      	ldr	r1, [r4, #0]
 8000ac8:	4610      	mov	r0, r2
 8000aca:	236c      	movs	r3, #108	; 0x6c
 8000acc:	f003 fe68 	bl	80047a0 <UnityAssertEqualNumber>
/Users/Luppy/stm32bluepill-unittest/src/../lib/nano-float/test/test.c:109
x = 2205.196;  y = 2205.195;  ri = __wrap___aeabi_dcmplt(x, y); TEST_ASSERT_EQUAL_INT( 0                  , ri );
 8000ad0:	a34d      	add	r3, pc, #308	; (adr r3, 8000c08 <test_aeabi_dcmplt+0x170>)
 8000ad2:	e9d3 2300 	ldrd	r2, r3, [r3]
 8000ad6:	e9c6 8900 	strd	r8, r9, [r6]
 8000ada:	e9c5 2300 	strd	r2, r3, [r5]
 8000ade:	e9d6 0100 	ldrd	r0, r1, [r6]
 8000ae2:	e9d5 2300 	ldrd	r2, r3, [r5]
 8000ae6:	f003 ffc3 	bl	8004a70 <__wrap___aeabi_dcmplt>
 8000aea:	2200      	movs	r2, #0
 8000aec:	6020      	str	r0, [r4, #0]
 8000aee:	6821      	ldr	r1, [r4, #0]
 8000af0:	4610      	mov	r0, r2
 8000af2:	9700      	str	r7, [sp, #0]
 8000af4:	236d      	movs	r3, #109	; 0x6d
 8000af6:	f003 fe53 	bl	80047a0 <UnityAssertEqualNumber>
/Users/Luppy/stm32bluepill-unittest/src/../lib/nano-float/test/test.c:110
x = 2205.196;  y = 2205.197;  ri = __wrap___aeabi_dcmplt(x, y); TEST_ASSERT_EQUAL_INT( 1                  , ri );
 8000afa:	a345      	add	r3, pc, #276	; (adr r3, 8000c10 <test_aeabi_dcmplt+0x178>)
 8000afc:	e9d3 2300 	ldrd	r2, r3, [r3]
 8000b00:	e9c6 8900 	strd	r8, r9, [r6]
 8000b04:	e9c5 2300 	strd	r2, r3, [r5]
 8000b08:	e9d6 0100 	ldrd	r0, r1, [r6]
 8000b0c:	e9d5 2300 	ldrd	r2, r3, [r5]
 8000b10:	f003 ffae 	bl	8004a70 <__wrap___aeabi_dcmplt>
/Users/Luppy/stm32bluepill-unittest/src/../lib/nano-float/test/test.c:111
x = 2205.196;  y = 0;         ri = __wrap___aeabi_dcmplt(x, y); TEST_ASSERT_EQUAL_INT( 0                  , ri );
 8000b14:	f04f 0a00 	mov.w	sl, #0
 8000b18:	f04f 0b00 	mov.w	fp, #0
/Users/Luppy/stm32bluepill-unittest/src/../lib/nano-float/test/test.c:110
x = 2205.196;  y = 2205.197;  ri = __wrap___aeabi_dcmplt(x, y); TEST_ASSERT_EQUAL_INT( 1                  , ri );
 8000b1c:	6020      	str	r0, [r4, #0]
 8000b1e:	6821      	ldr	r1, [r4, #0]
 8000b20:	9700      	str	r7, [sp, #0]
 8000b22:	236e      	movs	r3, #110	; 0x6e
 8000b24:	2200      	movs	r2, #0
 8000b26:	2001      	movs	r0, #1
 8000b28:	f003 fe3a 	bl	80047a0 <UnityAssertEqualNumber>
/Users/Luppy/stm32bluepill-unittest/src/../lib/nano-float/test/test.c:111
x = 2205.196;  y = 0;         ri = __wrap___aeabi_dcmplt(x, y); TEST_ASSERT_EQUAL_INT( 0                  , ri );
 8000b2c:	e9c6 8900 	strd	r8, r9, [r6]
/Users/Luppy/stm32bluepill-unittest/src/../lib/nano-float/test/test.c:112
x = -2205.196; y = -2205.196; ri = __wrap___aeabi_dcmplt(x, y); TEST_ASSERT_EQUAL_INT( 0                  , ri );
 8000b30:	f20f 09e4 	addw	r9, pc, #228	; 0xe4
 8000b34:	e9d9 8900 	ldrd	r8, r9, [r9]
/Users/Luppy/stm32bluepill-unittest/src/../lib/nano-float/test/test.c:111
x = 2205.196;  y = 0;         ri = __wrap___aeabi_dcmplt(x, y); TEST_ASSERT_EQUAL_INT( 0                  , ri );
 8000b38:	e9c5 ab00 	strd	sl, fp, [r5]
 8000b3c:	e9d6 0100 	ldrd	r0, r1, [r6]
 8000b40:	e9d5 2300 	ldrd	r2, r3, [r5]
 8000b44:	f003 ff94 	bl	8004a70 <__wrap___aeabi_dcmplt>
 8000b48:	2200      	movs	r2, #0
 8000b4a:	6020      	str	r0, [r4, #0]
 8000b4c:	6821      	ldr	r1, [r4, #0]
 8000b4e:	4610      	mov	r0, r2
 8000b50:	9700      	str	r7, [sp, #0]
 8000b52:	236f      	movs	r3, #111	; 0x6f
 8000b54:	f003 fe24 	bl	80047a0 <UnityAssertEqualNumber>
/Users/Luppy/stm32bluepill-unittest/src/../lib/nano-float/test/test.c:112
x = -2205.196; y = -2205.196; ri = __wrap___aeabi_dcmplt(x, y); TEST_ASSERT_EQUAL_INT( 0                  , ri );
 8000b58:	e9c6 8900 	strd	r8, r9, [r6]
 8000b5c:	e9c5 8900 	strd	r8, r9, [r5]
 8000b60:	e9d6 0100 	ldrd	r0, r1, [r6]
 8000b64:	e9d5 2300 	ldrd	r2, r3, [r5]
 8000b68:	f003 ff82 	bl	8004a70 <__wrap___aeabi_dcmplt>
 8000b6c:	2200      	movs	r2, #0
 8000b6e:	6020      	str	r0, [r4, #0]
 8000b70:	6821      	ldr	r1, [r4, #0]
 8000b72:	4610      	mov	r0, r2
 8000b74:	9700      	str	r7, [sp, #0]
 8000b76:	2370      	movs	r3, #112	; 0x70
 8000b78:	f003 fe12 	bl	80047a0 <UnityAssertEqualNumber>
/Users/Luppy/stm32bluepill-unittest/src/../lib/nano-float/test/test.c:113
x = -2205.196; y = -2205.195; ri = __wrap___aeabi_dcmplt(x, y); TEST_ASSERT_EQUAL_INT( 1                  , ri );
 8000b7c:	a328      	add	r3, pc, #160	; (adr r3, 8000c20 <test_aeabi_dcmplt+0x188>)
 8000b7e:	e9d3 2300 	ldrd	r2, r3, [r3]
 8000b82:	e9c6 8900 	strd	r8, r9, [r6]
 8000b86:	e9c5 2300 	strd	r2, r3, [r5]
 8000b8a:	e9d6 0100 	ldrd	r0, r1, [r6]
 8000b8e:	e9d5 2300 	ldrd	r2, r3, [r5]
 8000b92:	f003 ff6d 	bl	8004a70 <__wrap___aeabi_dcmplt>
 8000b96:	6020      	str	r0, [r4, #0]
 8000b98:	6821      	ldr	r1, [r4, #0]
 8000b9a:	9700      	str	r7, [sp, #0]
 8000b9c:	2371      	movs	r3, #113	; 0x71
 8000b9e:	2200      	movs	r2, #0
 8000ba0:	2001      	movs	r0, #1
 8000ba2:	f003 fdfd 	bl	80047a0 <UnityAssertEqualNumber>
/Users/Luppy/stm32bluepill-unittest/src/../lib/nano-float/test/test.c:114
x = -2205.196; y = -2205.197; ri = __wrap___aeabi_dcmplt(x, y); TEST_ASSERT_EQUAL_INT( 0                  , ri );
 8000ba6:	a320      	add	r3, pc, #128	; (adr r3, 8000c28 <test_aeabi_dcmplt+0x190>)
 8000ba8:	e9d3 2300 	ldrd	r2, r3, [r3]
 8000bac:	e9c6 8900 	strd	r8, r9, [r6]
 8000bb0:	e9c5 2300 	strd	r2, r3, [r5]
 8000bb4:	e9d6 0100 	ldrd	r0, r1, [r6]
 8000bb8:	e9d5 2300 	ldrd	r2, r3, [r5]
 8000bbc:	f003 ff58 	bl	8004a70 <__wrap___aeabi_dcmplt>
 8000bc0:	2200      	movs	r2, #0
 8000bc2:	6020      	str	r0, [r4, #0]
 8000bc4:	6821      	ldr	r1, [r4, #0]
 8000bc6:	4610      	mov	r0, r2
 8000bc8:	9700      	str	r7, [sp, #0]
 8000bca:	2372      	movs	r3, #114	; 0x72
 8000bcc:	f003 fde8 	bl	80047a0 <UnityAssertEqualNumber>
/Users/Luppy/stm32bluepill-unittest/src/../lib/nano-float/test/test.c:115
x = -2205.196; y = 0;         ri = __wrap___aeabi_dcmplt(x, y); TEST_ASSERT_EQUAL_INT( 1                  , ri );
 8000bd0:	e9c6 8900 	strd	r8, r9, [r6]
 8000bd4:	e9c5 ab00 	strd	sl, fp, [r5]
 8000bd8:	e9d6 0100 	ldrd	r0, r1, [r6]
 8000bdc:	e9d5 2300 	ldrd	r2, r3, [r5]
 8000be0:	f003 ff46 	bl	8004a70 <__wrap___aeabi_dcmplt>
 8000be4:	6020      	str	r0, [r4, #0]
 8000be6:	6821      	ldr	r1, [r4, #0]
 8000be8:	9700      	str	r7, [sp, #0]
 8000bea:	2373      	movs	r3, #115	; 0x73
 8000bec:	2200      	movs	r2, #0
 8000bee:	2001      	movs	r0, #1
 8000bf0:	f003 fdd6 	bl	80047a0 <UnityAssertEqualNumber>
/Users/Luppy/stm32bluepill-unittest/src/../lib/nano-float/test/test.c:116
}
 8000bf4:	b003      	add	sp, #12
 8000bf6:	e8bd 8ff0 	ldmia.w	sp!, {r4, r5, r6, r7, r8, r9, sl, fp, pc}
 8000bfa:	bf00      	nop
 8000bfc:	f3af 8000 	nop.w
 8000c00:	5a1cac08 	.word	0x5a1cac08
 8000c04:	40a13a64 	.word	0x40a13a64
 8000c08:	d70a3d71 	.word	0xd70a3d71
 8000c0c:	40a13a63 	.word	0x40a13a63
 8000c10:	dd2f1aa0 	.word	0xdd2f1aa0
 8000c14:	40a13a64 	.word	0x40a13a64
 8000c18:	5a1cac08 	.word	0x5a1cac08
 8000c1c:	c0a13a64 	.word	0xc0a13a64
 8000c20:	d70a3d71 	.word	0xd70a3d71
 8000c24:	c0a13a63 	.word	0xc0a13a63
 8000c28:	dd2f1aa0 	.word	0xdd2f1aa0
 8000c2c:	c0a13a64 	.word	0xc0a13a64
 8000c30:	20000018 	.word	0x20000018
 8000c34:	20000028 	.word	0x20000028
 8000c38:	2000000c 	.word	0x2000000c
 8000c3c:	00000000 	.word	0x00000000

08000c40 <test_aeabi_dcmple>:
test_aeabi_dcmple():
/Users/Luppy/stm32bluepill-unittest/src/../lib/nano-float/test/test.c:118
void test_aeabi_dcmple(void) {
 8000c40:	e92d 4ff7 	stmdb	sp!, {r0, r1, r2, r4, r5, r6, r7, r8, r9, sl, fp, lr}
/Users/Luppy/stm32bluepill-unittest/src/../lib/nano-float/test/test.c:119
x = 2205.196;  y = 2205.196;  ri = __wrap___aeabi_dcmple(x, y); TEST_ASSERT_EQUAL_INT( 1                  , ri );
 8000c44:	f20f 1960 	addw	r9, pc, #352	; 0x160
 8000c48:	e9d9 8900 	ldrd	r8, r9, [r9]
 8000c4c:	4e62      	ldr	r6, [pc, #392]	; (8000dd8 <test_aeabi_dcmple+0x198>)
 8000c4e:	4d63      	ldr	r5, [pc, #396]	; (8000ddc <test_aeabi_dcmple+0x19c>)
 8000c50:	e9c6 8900 	strd	r8, r9, [r6]
 8000c54:	e9c5 8900 	strd	r8, r9, [r5]
 8000c58:	e9d6 0100 	ldrd	r0, r1, [r6]
 8000c5c:	e9d5 2300 	ldrd	r2, r3, [r5]
 8000c60:	f003 ff1e 	bl	8004aa0 <__wrap___aeabi_dcmple>
 8000c64:	2714      	movs	r7, #20
 8000c66:	4c5e      	ldr	r4, [pc, #376]	; (8000de0 <test_aeabi_dcmple+0x1a0>)
 8000c68:	9700      	str	r7, [sp, #0]
 8000c6a:	6020      	str	r0, [r4, #0]
 8000c6c:	6821      	ldr	r1, [r4, #0]
 8000c6e:	2377      	movs	r3, #119	; 0x77
 8000c70:	2200      	movs	r2, #0
 8000c72:	2001      	movs	r0, #1
 8000c74:	f003 fd94 	bl	80047a0 <UnityAssertEqualNumber>
/Users/Luppy/stm32bluepill-unittest/src/../lib/nano-float/test/test.c:120
x = 2205.196;  y = 2205.195;  ri = __wrap___aeabi_dcmple(x, y); TEST_ASSERT_EQUAL_INT( 0                  , ri );
 8000c78:	a34d      	add	r3, pc, #308	; (adr r3, 8000db0 <test_aeabi_dcmple+0x170>)
 8000c7a:	e9d3 2300 	ldrd	r2, r3, [r3]
 8000c7e:	e9c6 8900 	strd	r8, r9, [r6]
 8000c82:	e9c5 2300 	strd	r2, r3, [r5]
 8000c86:	e9d6 0100 	ldrd	r0, r1, [r6]
 8000c8a:	e9d5 2300 	ldrd	r2, r3, [r5]
 8000c8e:	f003 ff07 	bl	8004aa0 <__wrap___aeabi_dcmple>
 8000c92:	2200      	movs	r2, #0
 8000c94:	6020      	str	r0, [r4, #0]
 8000c96:	6821      	ldr	r1, [r4, #0]
 8000c98:	4610      	mov	r0, r2
 8000c9a:	9700      	str	r7, [sp, #0]
 8000c9c:	2378      	movs	r3, #120	; 0x78
 8000c9e:	f003 fd7f 	bl	80047a0 <UnityAssertEqualNumber>
/Users/Luppy/stm32bluepill-unittest/src/../lib/nano-float/test/test.c:121
x = 2205.196;  y = 2205.197;  ri = __wrap___aeabi_dcmple(x, y); TEST_ASSERT_EQUAL_INT( 1                  , ri );
 8000ca2:	a345      	add	r3, pc, #276	; (adr r3, 8000db8 <test_aeabi_dcmple+0x178>)
 8000ca4:	e9d3 2300 	ldrd	r2, r3, [r3]
 8000ca8:	e9c6 8900 	strd	r8, r9, [r6]
 8000cac:	e9c5 2300 	strd	r2, r3, [r5]
 8000cb0:	e9d6 0100 	ldrd	r0, r1, [r6]
 8000cb4:	e9d5 2300 	ldrd	r2, r3, [r5]
 8000cb8:	f003 fef2 	bl	8004aa0 <__wrap___aeabi_dcmple>
/Users/Luppy/stm32bluepill-unittest/src/../lib/nano-float/test/test.c:122
x = 2205.196;  y = 0;         ri = __wrap___aeabi_dcmple(x, y); TEST_ASSERT_EQUAL_INT( 0                  , ri );
 8000cbc:	f04f 0a00 	mov.w	sl, #0
 8000cc0:	f04f 0b00 	mov.w	fp, #0
/Users/Luppy/stm32bluepill-unittest/src/../lib/nano-float/test/test.c:121
x = 2205.196;  y = 2205.197;  ri = __wrap___aeabi_dcmple(x, y); TEST_ASSERT_EQUAL_INT( 1                  , ri );
 8000cc4:	6020      	str	r0, [r4, #0]
 8000cc6:	6821      	ldr	r1, [r4, #0]
 8000cc8:	9700      	str	r7, [sp, #0]
 8000cca:	2379      	movs	r3, #121	; 0x79
 8000ccc:	2200      	movs	r2, #0
 8000cce:	2001      	movs	r0, #1
 8000cd0:	f003 fd66 	bl	80047a0 <UnityAssertEqualNumber>
/Users/Luppy/stm32bluepill-unittest/src/../lib/nano-float/test/test.c:122
x = 2205.196;  y = 0;         ri = __wrap___aeabi_dcmple(x, y); TEST_ASSERT_EQUAL_INT( 0                  , ri );
 8000cd4:	e9c6 8900 	strd	r8, r9, [r6]
/Users/Luppy/stm32bluepill-unittest/src/../lib/nano-float/test/test.c:123
x = -2205.196; y = -2205.196; ri = __wrap___aeabi_dcmple(x, y); TEST_ASSERT_EQUAL_INT( 1                  , ri );
 8000cd8:	f20f 09e4 	addw	r9, pc, #228	; 0xe4
 8000cdc:	e9d9 8900 	ldrd	r8, r9, [r9]
/Users/Luppy/stm32bluepill-unittest/src/../lib/nano-float/test/test.c:122
x = 2205.196;  y = 0;         ri = __wrap___aeabi_dcmple(x, y); TEST_ASSERT_EQUAL_INT( 0                  , ri );
 8000ce0:	e9c5 ab00 	strd	sl, fp, [r5]
 8000ce4:	e9d6 0100 	ldrd	r0, r1, [r6]
 8000ce8:	e9d5 2300 	ldrd	r2, r3, [r5]
 8000cec:	f003 fed8 	bl	8004aa0 <__wrap___aeabi_dcmple>
 8000cf0:	2200      	movs	r2, #0
 8000cf2:	6020      	str	r0, [r4, #0]
 8000cf4:	6821      	ldr	r1, [r4, #0]
 8000cf6:	4610      	mov	r0, r2
 8000cf8:	9700      	str	r7, [sp, #0]
 8000cfa:	237a      	movs	r3, #122	; 0x7a
 8000cfc:	f003 fd50 	bl	80047a0 <UnityAssertEqualNumber>
/Users/Luppy/stm32bluepill-unittest/src/../lib/nano-float/test/test.c:123
x = -2205.196; y = -2205.196; ri = __wrap___aeabi_dcmple(x, y); TEST_ASSERT_EQUAL_INT( 1                  , ri );
 8000d00:	e9c6 8900 	strd	r8, r9, [r6]
 8000d04:	e9c5 8900 	strd	r8, r9, [r5]
 8000d08:	e9d6 0100 	ldrd	r0, r1, [r6]
 8000d0c:	e9d5 2300 	ldrd	r2, r3, [r5]
 8000d10:	f003 fec6 	bl	8004aa0 <__wrap___aeabi_dcmple>
 8000d14:	6020      	str	r0, [r4, #0]
 8000d16:	6821      	ldr	r1, [r4, #0]
 8000d18:	9700      	str	r7, [sp, #0]
 8000d1a:	237b      	movs	r3, #123	; 0x7b
 8000d1c:	2200      	movs	r2, #0
 8000d1e:	2001      	movs	r0, #1
 8000d20:	f003 fd3e 	bl	80047a0 <UnityAssertEqualNumber>
/Users/Luppy/stm32bluepill-unittest/src/../lib/nano-float/test/test.c:124
x = -2205.196; y = -2205.195; ri = __wrap___aeabi_dcmple(x, y); TEST_ASSERT_EQUAL_INT( 1                  , ri );
 8000d24:	a328      	add	r3, pc, #160	; (adr r3, 8000dc8 <test_aeabi_dcmple+0x188>)
 8000d26:	e9d3 2300 	ldrd	r2, r3, [r3]
 8000d2a:	e9c6 8900 	strd	r8, r9, [r6]
 8000d2e:	e9c5 2300 	strd	r2, r3, [r5]
 8000d32:	e9d6 0100 	ldrd	r0, r1, [r6]
 8000d36:	e9d5 2300 	ldrd	r2, r3, [r5]
 8000d3a:	f003 feb1 	bl	8004aa0 <__wrap___aeabi_dcmple>
 8000d3e:	6020      	str	r0, [r4, #0]
 8000d40:	6821      	ldr	r1, [r4, #0]
 8000d42:	9700      	str	r7, [sp, #0]
 8000d44:	237c      	movs	r3, #124	; 0x7c
 8000d46:	2200      	movs	r2, #0
 8000d48:	2001      	movs	r0, #1
 8000d4a:	f003 fd29 	bl	80047a0 <UnityAssertEqualNumber>
/Users/Luppy/stm32bluepill-unittest/src/../lib/nano-float/test/test.c:125
x = -2205.196; y = -2205.197; ri = __wrap___aeabi_dcmple(x, y); TEST_ASSERT_EQUAL_INT( 0                  , ri );
 8000d4e:	a320      	add	r3, pc, #128	; (adr r3, 8000dd0 <test_aeabi_dcmple+0x190>)
 8000d50:	e9d3 2300 	ldrd	r2, r3, [r3]
 8000d54:	e9c6 8900 	strd	r8, r9, [r6]
 8000d58:	e9c5 2300 	strd	r2, r3, [r5]
 8000d5c:	e9d6 0100 	ldrd	r0, r1, [r6]
 8000d60:	e9d5 2300 	ldrd	r2, r3, [r5]
 8000d64:	f003 fe9c 	bl	8004aa0 <__wrap___aeabi_dcmple>
 8000d68:	2200      	movs	r2, #0
 8000d6a:	6020      	str	r0, [r4, #0]
 8000d6c:	6821      	ldr	r1, [r4, #0]
 8000d6e:	4610      	mov	r0, r2
 8000d70:	9700      	str	r7, [sp, #0]
 8000d72:	237d      	movs	r3, #125	; 0x7d
 8000d74:	f003 fd14 	bl	80047a0 <UnityAssertEqualNumber>
/Users/Luppy/stm32bluepill-unittest/src/../lib/nano-float/test/test.c:126
x = -2205.196; y = 0;         ri = __wrap___aeabi_dcmple(x, y); TEST_ASSERT_EQUAL_INT( 1                  , ri );
 8000d78:	e9c6 8900 	strd	r8, r9, [r6]
 8000d7c:	e9c5 ab00 	strd	sl, fp, [r5]
 8000d80:	e9d6 0100 	ldrd	r0, r1, [r6]
 8000d84:	e9d5 2300 	ldrd	r2, r3, [r5]
 8000d88:	f003 fe8a 	bl	8004aa0 <__wrap___aeabi_dcmple>
 8000d8c:	6020      	str	r0, [r4, #0]
 8000d8e:	6821      	ldr	r1, [r4, #0]
 8000d90:	9700      	str	r7, [sp, #0]
 8000d92:	237e      	movs	r3, #126	; 0x7e
 8000d94:	2200      	movs	r2, #0
 8000d96:	2001      	movs	r0, #1
 8000d98:	f003 fd02 	bl	80047a0 <UnityAssertEqualNumber>
/Users/Luppy/stm32bluepill-unittest/src/../lib/nano-float/test/test.c:127
}
 8000d9c:	b003      	add	sp, #12
 8000d9e:	e8bd 8ff0 	ldmia.w	sp!, {r4, r5, r6, r7, r8, r9, sl, fp, pc}
 8000da2:	bf00      	nop
 8000da4:	f3af 8000 	nop.w
 8000da8:	5a1cac08 	.word	0x5a1cac08
 8000dac:	40a13a64 	.word	0x40a13a64
 8000db0:	d70a3d71 	.word	0xd70a3d71
 8000db4:	40a13a63 	.word	0x40a13a63
 8000db8:	dd2f1aa0 	.word	0xdd2f1aa0
 8000dbc:	40a13a64 	.word	0x40a13a64
 8000dc0:	5a1cac08 	.word	0x5a1cac08
 8000dc4:	c0a13a64 	.word	0xc0a13a64
 8000dc8:	d70a3d71 	.word	0xd70a3d71
 8000dcc:	c0a13a63 	.word	0xc0a13a63
 8000dd0:	dd2f1aa0 	.word	0xdd2f1aa0
 8000dd4:	c0a13a64 	.word	0xc0a13a64
 8000dd8:	20000018 	.word	0x20000018
 8000ddc:	20000028 	.word	0x20000028
 8000de0:	2000000c 	.word	0x2000000c
 8000de4:	00000000 	.word	0x00000000

08000de8 <test_aeabi_dcmpge>:
test_aeabi_dcmpge():
/Users/Luppy/stm32bluepill-unittest/src/../lib/nano-float/test/test.c:129
void test_aeabi_dcmpge(void) {
 8000de8:	e92d 4ff7 	stmdb	sp!, {r0, r1, r2, r4, r5, r6, r7, r8, r9, sl, fp, lr}
/Users/Luppy/stm32bluepill-unittest/src/../lib/nano-float/test/test.c:130
x = 2205.196;  y = 2205.196;  ri = __wrap___aeabi_dcmpge(x, y); TEST_ASSERT_EQUAL_INT( 1                  , ri );
 8000dec:	f20f 1960 	addw	r9, pc, #352	; 0x160
 8000df0:	e9d9 8900 	ldrd	r8, r9, [r9]
 8000df4:	4e62      	ldr	r6, [pc, #392]	; (8000f80 <test_aeabi_dcmpge+0x198>)
 8000df6:	4d63      	ldr	r5, [pc, #396]	; (8000f84 <test_aeabi_dcmpge+0x19c>)
 8000df8:	e9c6 8900 	strd	r8, r9, [r6]
 8000dfc:	e9c5 8900 	strd	r8, r9, [r5]
 8000e00:	e9d6 0100 	ldrd	r0, r1, [r6]
 8000e04:	e9d5 2300 	ldrd	r2, r3, [r5]
 8000e08:	f003 fe64 	bl	8004ad4 <__wrap___aeabi_dcmpge>
 8000e0c:	2714      	movs	r7, #20
 8000e0e:	4c5e      	ldr	r4, [pc, #376]	; (8000f88 <test_aeabi_dcmpge+0x1a0>)
 8000e10:	9700      	str	r7, [sp, #0]
 8000e12:	6020      	str	r0, [r4, #0]
 8000e14:	6821      	ldr	r1, [r4, #0]
 8000e16:	2382      	movs	r3, #130	; 0x82
 8000e18:	2200      	movs	r2, #0
 8000e1a:	2001      	movs	r0, #1
 8000e1c:	f003 fcc0 	bl	80047a0 <UnityAssertEqualNumber>
/Users/Luppy/stm32bluepill-unittest/src/../lib/nano-float/test/test.c:131
x = 2205.196;  y = 2205.195;  ri = __wrap___aeabi_dcmpge(x, y); TEST_ASSERT_EQUAL_INT( 1                  , ri );
 8000e20:	a34d      	add	r3, pc, #308	; (adr r3, 8000f58 <test_aeabi_dcmpge+0x170>)
 8000e22:	e9d3 2300 	ldrd	r2, r3, [r3]
 8000e26:	e9c6 8900 	strd	r8, r9, [r6]
 8000e2a:	e9c5 2300 	strd	r2, r3, [r5]
 8000e2e:	e9d6 0100 	ldrd	r0, r1, [r6]
 8000e32:	e9d5 2300 	ldrd	r2, r3, [r5]
 8000e36:	f003 fe4d 	bl	8004ad4 <__wrap___aeabi_dcmpge>
 8000e3a:	6020      	str	r0, [r4, #0]
 8000e3c:	6821      	ldr	r1, [r4, #0]
 8000e3e:	9700      	str	r7, [sp, #0]
 8000e40:	2383      	movs	r3, #131	; 0x83
 8000e42:	2200      	movs	r2, #0
 8000e44:	2001      	movs	r0, #1
 8000e46:	f003 fcab 	bl	80047a0 <UnityAssertEqualNumber>
/Users/Luppy/stm32bluepill-unittest/src/../lib/nano-float/test/test.c:132
x = 2205.196;  y = 2205.197;  ri = __wrap___aeabi_dcmpge(x, y); TEST_ASSERT_EQUAL_INT( 0                  , ri );
 8000e4a:	a345      	add	r3, pc, #276	; (adr r3, 8000f60 <test_aeabi_dcmpge+0x178>)
 8000e4c:	e9d3 2300 	ldrd	r2, r3, [r3]
 8000e50:	e9c6 8900 	strd	r8, r9, [r6]
 8000e54:	e9c5 2300 	strd	r2, r3, [r5]
 8000e58:	e9d6 0100 	ldrd	r0, r1, [r6]
 8000e5c:	e9d5 2300 	ldrd	r2, r3, [r5]
 8000e60:	f003 fe38 	bl	8004ad4 <__wrap___aeabi_dcmpge>
 8000e64:	2200      	movs	r2, #0
/Users/Luppy/stm32bluepill-unittest/src/../lib/nano-float/test/test.c:133
x = 2205.196;  y = 0;         ri = __wrap___aeabi_dcmpge(x, y); TEST_ASSERT_EQUAL_INT( 1                  , ri );
 8000e66:	f04f 0a00 	mov.w	sl, #0
 8000e6a:	f04f 0b00 	mov.w	fp, #0
/Users/Luppy/stm32bluepill-unittest/src/../lib/nano-float/test/test.c:132
x = 2205.196;  y = 2205.197;  ri = __wrap___aeabi_dcmpge(x, y); TEST_ASSERT_EQUAL_INT( 0                  , ri );
 8000e6e:	6020      	str	r0, [r4, #0]
 8000e70:	6821      	ldr	r1, [r4, #0]
 8000e72:	4610      	mov	r0, r2
 8000e74:	9700      	str	r7, [sp, #0]
 8000e76:	2384      	movs	r3, #132	; 0x84
 8000e78:	f003 fc92 	bl	80047a0 <UnityAssertEqualNumber>
/Users/Luppy/stm32bluepill-unittest/src/../lib/nano-float/test/test.c:133
x = 2205.196;  y = 0;         ri = __wrap___aeabi_dcmpge(x, y); TEST_ASSERT_EQUAL_INT( 1                  , ri );
 8000e7c:	e9c6 8900 	strd	r8, r9, [r6]
/Users/Luppy/stm32bluepill-unittest/src/../lib/nano-float/test/test.c:134
x = -2205.196; y = -2205.196; ri = __wrap___aeabi_dcmpge(x, y); TEST_ASSERT_EQUAL_INT( 1                  , ri );
 8000e80:	f20f 09e4 	addw	r9, pc, #228	; 0xe4
 8000e84:	e9d9 8900 	ldrd	r8, r9, [r9]
/Users/Luppy/stm32bluepill-unittest/src/../lib/nano-float/test/test.c:133
x = 2205.196;  y = 0;         ri = __wrap___aeabi_dcmpge(x, y); TEST_ASSERT_EQUAL_INT( 1                  , ri );
 8000e88:	e9c5 ab00 	strd	sl, fp, [r5]
 8000e8c:	e9d6 0100 	ldrd	r0, r1, [r6]
 8000e90:	e9d5 2300 	ldrd	r2, r3, [r5]
 8000e94:	f003 fe1e 	bl	8004ad4 <__wrap___aeabi_dcmpge>
 8000e98:	6020      	str	r0, [r4, #0]
 8000e9a:	6821      	ldr	r1, [r4, #0]
 8000e9c:	9700      	str	r7, [sp, #0]
 8000e9e:	2385      	movs	r3, #133	; 0x85
 8000ea0:	2200      	movs	r2, #0
 8000ea2:	2001      	movs	r0, #1
 8000ea4:	f003 fc7c 	bl	80047a0 <UnityAssertEqualNumber>
/Users/Luppy/stm32bluepill-unittest/src/../lib/nano-float/test/test.c:134
x = -2205.196; y = -2205.196; ri = __wrap___aeabi_dcmpge(x, y); TEST_ASSERT_EQUAL_INT( 1                  , ri );
 8000ea8:	e9c6 8900 	strd	r8, r9, [r6]
 8000eac:	e9c5 8900 	strd	r8, r9, [r5]
 8000eb0:	e9d6 0100 	ldrd	r0, r1, [r6]
 8000eb4:	e9d5 2300 	ldrd	r2, r3, [r5]
 8000eb8:	f003 fe0c 	bl	8004ad4 <__wrap___aeabi_dcmpge>
 8000ebc:	6020      	str	r0, [r4, #0]
 8000ebe:	6821      	ldr	r1, [r4, #0]
 8000ec0:	9700      	str	r7, [sp, #0]
 8000ec2:	2386      	movs	r3, #134	; 0x86
 8000ec4:	2200      	movs	r2, #0
 8000ec6:	2001      	movs	r0, #1
 8000ec8:	f003 fc6a 	bl	80047a0 <UnityAssertEqualNumber>
/Users/Luppy/stm32bluepill-unittest/src/../lib/nano-float/test/test.c:135
x = -2205.196; y = -2205.195; ri = __wrap___aeabi_dcmpge(x, y); TEST_ASSERT_EQUAL_INT( 0                  , ri );
 8000ecc:	a328      	add	r3, pc, #160	; (adr r3, 8000f70 <test_aeabi_dcmpge+0x188>)
 8000ece:	e9d3 2300 	ldrd	r2, r3, [r3]
 8000ed2:	e9c6 8900 	strd	r8, r9, [r6]
 8000ed6:	e9c5 2300 	strd	r2, r3, [r5]
 8000eda:	e9d6 0100 	ldrd	r0, r1, [r6]
 8000ede:	e9d5 2300 	ldrd	r2, r3, [r5]
 8000ee2:	f003 fdf7 	bl	8004ad4 <__wrap___aeabi_dcmpge>
 8000ee6:	2200      	movs	r2, #0
 8000ee8:	6020      	str	r0, [r4, #0]
 8000eea:	6821      	ldr	r1, [r4, #0]
 8000eec:	4610      	mov	r0, r2
 8000eee:	9700      	str	r7, [sp, #0]
 8000ef0:	2387      	movs	r3, #135	; 0x87
 8000ef2:	f003 fc55 	bl	80047a0 <UnityAssertEqualNumber>
/Users/Luppy/stm32bluepill-unittest/src/../lib/nano-float/test/test.c:136
x = -2205.196; y = -2205.197; ri = __wrap___aeabi_dcmpge(x, y); TEST_ASSERT_EQUAL_INT( 1                  , ri );
 8000ef6:	a320      	add	r3, pc, #128	; (adr r3, 8000f78 <test_aeabi_dcmpge+0x190>)
 8000ef8:	e9d3 2300 	ldrd	r2, r3, [r3]
 8000efc:	e9c6 8900 	strd	r8, r9, [r6]
 8000f00:	e9c5 2300 	strd	r2, r3, [r5]
 8000f04:	e9d6 0100 	ldrd	r0, r1, [r6]
 8000f08:	e9d5 2300 	ldrd	r2, r3, [r5]
 8000f0c:	f003 fde2 	bl	8004ad4 <__wrap___aeabi_dcmpge>
 8000f10:	6020      	str	r0, [r4, #0]
 8000f12:	6821      	ldr	r1, [r4, #0]
 8000f14:	9700      	str	r7, [sp, #0]
 8000f16:	2388      	movs	r3, #136	; 0x88
 8000f18:	2200      	movs	r2, #0
 8000f1a:	2001      	movs	r0, #1
 8000f1c:	f003 fc40 	bl	80047a0 <UnityAssertEqualNumber>
/Users/Luppy/stm32bluepill-unittest/src/../lib/nano-float/test/test.c:137
x = -2205.196; y = 0;         ri = __wrap___aeabi_dcmpge(x, y); TEST_ASSERT_EQUAL_INT( 0                  , ri );
 8000f20:	e9c6 8900 	strd	r8, r9, [r6]
 8000f24:	e9c5 ab00 	strd	sl, fp, [r5]
 8000f28:	e9d6 0100 	ldrd	r0, r1, [r6]
 8000f2c:	e9d5 2300 	ldrd	r2, r3, [r5]
 8000f30:	f003 fdd0 	bl	8004ad4 <__wrap___aeabi_dcmpge>
 8000f34:	2200      	movs	r2, #0
 8000f36:	6020      	str	r0, [r4, #0]
 8000f38:	6821      	ldr	r1, [r4, #0]
 8000f3a:	9700      	str	r7, [sp, #0]
 8000f3c:	2389      	movs	r3, #137	; 0x89
 8000f3e:	4610      	mov	r0, r2
 8000f40:	f003 fc2e 	bl	80047a0 <UnityAssertEqualNumber>
/Users/Luppy/stm32bluepill-unittest/src/../lib/nano-float/test/test.c:138
}
 8000f44:	b003      	add	sp, #12
 8000f46:	e8bd 8ff0 	ldmia.w	sp!, {r4, r5, r6, r7, r8, r9, sl, fp, pc}
 8000f4a:	bf00      	nop
 8000f4c:	f3af 8000 	nop.w
 8000f50:	5a1cac08 	.word	0x5a1cac08
 8000f54:	40a13a64 	.word	0x40a13a64
 8000f58:	d70a3d71 	.word	0xd70a3d71
 8000f5c:	40a13a63 	.word	0x40a13a63
 8000f60:	dd2f1aa0 	.word	0xdd2f1aa0
 8000f64:	40a13a64 	.word	0x40a13a64
 8000f68:	5a1cac08 	.word	0x5a1cac08
 8000f6c:	c0a13a64 	.word	0xc0a13a64
 8000f70:	d70a3d71 	.word	0xd70a3d71
 8000f74:	c0a13a63 	.word	0xc0a13a63
 8000f78:	dd2f1aa0 	.word	0xdd2f1aa0
 8000f7c:	c0a13a64 	.word	0xc0a13a64
 8000f80:	20000018 	.word	0x20000018
 8000f84:	20000028 	.word	0x20000028
 8000f88:	2000000c 	.word	0x2000000c
 8000f8c:	00000000 	.word	0x00000000

08000f90 <test_aeabi_dcmpgt>:
test_aeabi_dcmpgt():
/Users/Luppy/stm32bluepill-unittest/src/../lib/nano-float/test/test.c:140
void test_aeabi_dcmpgt(void) {
 8000f90:	e92d 4ff7 	stmdb	sp!, {r0, r1, r2, r4, r5, r6, r7, r8, r9, sl, fp, lr}
/Users/Luppy/stm32bluepill-unittest/src/../lib/nano-float/test/test.c:141
x = 2205.196;  y = 2205.196;  ri = __wrap___aeabi_dcmpgt(x, y); TEST_ASSERT_EQUAL_INT( 0                  , ri );
 8000f94:	f20f 1960 	addw	r9, pc, #352	; 0x160
 8000f98:	e9d9 8900 	ldrd	r8, r9, [r9]
 8000f9c:	4e62      	ldr	r6, [pc, #392]	; (8001128 <test_aeabi_dcmpgt+0x198>)
 8000f9e:	4d63      	ldr	r5, [pc, #396]	; (800112c <test_aeabi_dcmpgt+0x19c>)
 8000fa0:	e9c6 8900 	strd	r8, r9, [r6]
 8000fa4:	e9c5 8900 	strd	r8, r9, [r5]
 8000fa8:	e9d6 0100 	ldrd	r0, r1, [r6]
 8000fac:	e9d5 2300 	ldrd	r2, r3, [r5]
 8000fb0:	f003 fda8 	bl	8004b04 <__wrap___aeabi_dcmpgt>
 8000fb4:	2714      	movs	r7, #20
 8000fb6:	2200      	movs	r2, #0
 8000fb8:	4c5d      	ldr	r4, [pc, #372]	; (8001130 <test_aeabi_dcmpgt+0x1a0>)
 8000fba:	9700      	str	r7, [sp, #0]
 8000fbc:	6020      	str	r0, [r4, #0]
 8000fbe:	6821      	ldr	r1, [r4, #0]
 8000fc0:	4610      	mov	r0, r2
 8000fc2:	238d      	movs	r3, #141	; 0x8d
 8000fc4:	f003 fbec 	bl	80047a0 <UnityAssertEqualNumber>
/Users/Luppy/stm32bluepill-unittest/src/../lib/nano-float/test/test.c:142
x = 2205.196;  y = 2205.195;  ri = __wrap___aeabi_dcmpgt(x, y); TEST_ASSERT_EQUAL_INT( 1                  , ri );
 8000fc8:	a34d      	add	r3, pc, #308	; (adr r3, 8001100 <test_aeabi_dcmpgt+0x170>)
 8000fca:	e9d3 2300 	ldrd	r2, r3, [r3]
 8000fce:	e9c6 8900 	strd	r8, r9, [r6]
 8000fd2:	e9c5 2300 	strd	r2, r3, [r5]
 8000fd6:	e9d6 0100 	ldrd	r0, r1, [r6]
 8000fda:	e9d5 2300 	ldrd	r2, r3, [r5]
 8000fde:	f003 fd91 	bl	8004b04 <__wrap___aeabi_dcmpgt>
 8000fe2:	6020      	str	r0, [r4, #0]
 8000fe4:	6821      	ldr	r1, [r4, #0]
 8000fe6:	9700      	str	r7, [sp, #0]
 8000fe8:	238e      	movs	r3, #142	; 0x8e
 8000fea:	2200      	movs	r2, #0
 8000fec:	2001      	movs	r0, #1
 8000fee:	f003 fbd7 	bl	80047a0 <UnityAssertEqualNumber>
/Users/Luppy/stm32bluepill-unittest/src/../lib/nano-float/test/test.c:143
x = 2205.196;  y = 2205.197;  ri = __wrap___aeabi_dcmpgt(x, y); TEST_ASSERT_EQUAL_INT( 0                  , ri );
 8000ff2:	a345      	add	r3, pc, #276	; (adr r3, 8001108 <test_aeabi_dcmpgt+0x178>)
 8000ff4:	e9d3 2300 	ldrd	r2, r3, [r3]
 8000ff8:	e9c6 8900 	strd	r8, r9, [r6]
 8000ffc:	e9c5 2300 	strd	r2, r3, [r5]
 8001000:	e9d6 0100 	ldrd	r0, r1, [r6]
 8001004:	e9d5 2300 	ldrd	r2, r3, [r5]
 8001008:	f003 fd7c 	bl	8004b04 <__wrap___aeabi_dcmpgt>
 800100c:	2200      	movs	r2, #0
/Users/Luppy/stm32bluepill-unittest/src/../lib/nano-float/test/test.c:144
x = 2205.196;  y = 0;         ri = __wrap___aeabi_dcmpgt(x, y); TEST_ASSERT_EQUAL_INT( 1                  , ri );
 800100e:	f04f 0a00 	mov.w	sl, #0
 8001012:	f04f 0b00 	mov.w	fp, #0
/Users/Luppy/stm32bluepill-unittest/src/../lib/nano-float/test/test.c:143
x = 2205.196;  y = 2205.197;  ri = __wrap___aeabi_dcmpgt(x, y); TEST_ASSERT_EQUAL_INT( 0                  , ri );
 8001016:	6020      	str	r0, [r4, #0]
 8001018:	6821      	ldr	r1, [r4, #0]
 800101a:	4610      	mov	r0, r2
 800101c:	9700      	str	r7, [sp, #0]
 800101e:	238f      	movs	r3, #143	; 0x8f
 8001020:	f003 fbbe 	bl	80047a0 <UnityAssertEqualNumber>
/Users/Luppy/stm32bluepill-unittest/src/../lib/nano-float/test/test.c:144
x = 2205.196;  y = 0;         ri = __wrap___aeabi_dcmpgt(x, y); TEST_ASSERT_EQUAL_INT( 1                  , ri );
 8001024:	e9c6 8900 	strd	r8, r9, [r6]
/Users/Luppy/stm32bluepill-unittest/src/../lib/nano-float/test/test.c:145
x = -2205.196; y = -2205.196; ri = __wrap___aeabi_dcmpgt(x, y); TEST_ASSERT_EQUAL_INT( 0                  , ri );
 8001028:	f20f 09e4 	addw	r9, pc, #228	; 0xe4
 800102c:	e9d9 8900 	ldrd	r8, r9, [r9]
/Users/Luppy/stm32bluepill-unittest/src/../lib/nano-float/test/test.c:144
x = 2205.196;  y = 0;         ri = __wrap___aeabi_dcmpgt(x, y); TEST_ASSERT_EQUAL_INT( 1                  , ri );
 8001030:	e9c5 ab00 	strd	sl, fp, [r5]
 8001034:	e9d6 0100 	ldrd	r0, r1, [r6]
 8001038:	e9d5 2300 	ldrd	r2, r3, [r5]
 800103c:	f003 fd62 	bl	8004b04 <__wrap___aeabi_dcmpgt>
 8001040:	6020      	str	r0, [r4, #0]
 8001042:	6821      	ldr	r1, [r4, #0]
 8001044:	9700      	str	r7, [sp, #0]
 8001046:	2390      	movs	r3, #144	; 0x90
 8001048:	2200      	movs	r2, #0
 800104a:	2001      	movs	r0, #1
 800104c:	f003 fba8 	bl	80047a0 <UnityAssertEqualNumber>
/Users/Luppy/stm32bluepill-unittest/src/../lib/nano-float/test/test.c:145
x = -2205.196; y = -2205.196; ri = __wrap___aeabi_dcmpgt(x, y); TEST_ASSERT_EQUAL_INT( 0                  , ri );
 8001050:	e9c6 8900 	strd	r8, r9, [r6]
 8001054:	e9c5 8900 	strd	r8, r9, [r5]
 8001058:	e9d6 0100 	ldrd	r0, r1, [r6]
 800105c:	e9d5 2300 	ldrd	r2, r3, [r5]
 8001060:	f003 fd50 	bl	8004b04 <__wrap___aeabi_dcmpgt>
 8001064:	2200      	movs	r2, #0
 8001066:	6020      	str	r0, [r4, #0]
 8001068:	6821      	ldr	r1, [r4, #0]
 800106a:	4610      	mov	r0, r2
 800106c:	9700      	str	r7, [sp, #0]
 800106e:	2391      	movs	r3, #145	; 0x91
 8001070:	f003 fb96 	bl	80047a0 <UnityAssertEqualNumber>
/Users/Luppy/stm32bluepill-unittest/src/../lib/nano-float/test/test.c:146
x = -2205.196; y = -2205.195; ri = __wrap___aeabi_dcmpgt(x, y); TEST_ASSERT_EQUAL_INT( 0                  , ri );
 8001074:	a328      	add	r3, pc, #160	; (adr r3, 8001118 <test_aeabi_dcmpgt+0x188>)
 8001076:	e9d3 2300 	ldrd	r2, r3, [r3]
 800107a:	e9c6 8900 	strd	r8, r9, [r6]
 800107e:	e9c5 2300 	strd	r2, r3, [r5]
 8001082:	e9d6 0100 	ldrd	r0, r1, [r6]
 8001086:	e9d5 2300 	ldrd	r2, r3, [r5]
 800108a:	f003 fd3b 	bl	8004b04 <__wrap___aeabi_dcmpgt>
 800108e:	2200      	movs	r2, #0
 8001090:	6020      	str	r0, [r4, #0]
 8001092:	6821      	ldr	r1, [r4, #0]
 8001094:	4610      	mov	r0, r2
 8001096:	9700      	str	r7, [sp, #0]
 8001098:	2392      	movs	r3, #146	; 0x92
 800109a:	f003 fb81 	bl	80047a0 <UnityAssertEqualNumber>
/Users/Luppy/stm32bluepill-unittest/src/../lib/nano-float/test/test.c:147
x = -2205.196; y = -2205.197; ri = __wrap___aeabi_dcmpgt(x, y); TEST_ASSERT_EQUAL_INT( 1                  , ri );
 800109e:	a320      	add	r3, pc, #128	; (adr r3, 8001120 <test_aeabi_dcmpgt+0x190>)
 80010a0:	e9d3 2300 	ldrd	r2, r3, [r3]
 80010a4:	e9c6 8900 	strd	r8, r9, [r6]
 80010a8:	e9c5 2300 	strd	r2, r3, [r5]
 80010ac:	e9d6 0100 	ldrd	r0, r1, [r6]
 80010b0:	e9d5 2300 	ldrd	r2, r3, [r5]
 80010b4:	f003 fd26 	bl	8004b04 <__wrap___aeabi_dcmpgt>
 80010b8:	6020      	str	r0, [r4, #0]
 80010ba:	6821      	ldr	r1, [r4, #0]
 80010bc:	9700      	str	r7, [sp, #0]
 80010be:	2393      	movs	r3, #147	; 0x93
 80010c0:	2200      	movs	r2, #0
 80010c2:	2001      	movs	r0, #1
 80010c4:	f003 fb6c 	bl	80047a0 <UnityAssertEqualNumber>
/Users/Luppy/stm32bluepill-unittest/src/../lib/nano-float/test/test.c:148
x = -2205.196; y = 0;         ri = __wrap___aeabi_dcmpgt(x, y); TEST_ASSERT_EQUAL_INT( 0                  , ri );
 80010c8:	e9c6 8900 	strd	r8, r9, [r6]
 80010cc:	e9c5 ab00 	strd	sl, fp, [r5]
 80010d0:	e9d6 0100 	ldrd	r0, r1, [r6]
 80010d4:	e9d5 2300 	ldrd	r2, r3, [r5]
 80010d8:	f003 fd14 	bl	8004b04 <__wrap___aeabi_dcmpgt>
 80010dc:	2200      	movs	r2, #0
 80010de:	6020      	str	r0, [r4, #0]
 80010e0:	6821      	ldr	r1, [r4, #0]
 80010e2:	9700      	str	r7, [sp, #0]
 80010e4:	2394      	movs	r3, #148	; 0x94
 80010e6:	4610      	mov	r0, r2
 80010e8:	f003 fb5a 	bl	80047a0 <UnityAssertEqualNumber>
/Users/Luppy/stm32bluepill-unittest/src/../lib/nano-float/test/test.c:149
}
 80010ec:	b003      	add	sp, #12
 80010ee:	e8bd 8ff0 	ldmia.w	sp!, {r4, r5, r6, r7, r8, r9, sl, fp, pc}
 80010f2:	bf00      	nop
 80010f4:	f3af 8000 	nop.w
 80010f8:	5a1cac08 	.word	0x5a1cac08
 80010fc:	40a13a64 	.word	0x40a13a64
 8001100:	d70a3d71 	.word	0xd70a3d71
 8001104:	40a13a63 	.word	0x40a13a63
 8001108:	dd2f1aa0 	.word	0xdd2f1aa0
 800110c:	40a13a64 	.word	0x40a13a64
 8001110:	5a1cac08 	.word	0x5a1cac08
 8001114:	c0a13a64 	.word	0xc0a13a64
 8001118:	d70a3d71 	.word	0xd70a3d71
 800111c:	c0a13a63 	.word	0xc0a13a63
 8001120:	dd2f1aa0 	.word	0xdd2f1aa0
 8001124:	c0a13a64 	.word	0xc0a13a64
 8001128:	20000018 	.word	0x20000018
 800112c:	20000028 	.word	0x20000028
 8001130:	2000000c 	.word	0x2000000c
 8001134:	00000000 	.word	0x00000000

08001138 <test_aeabi_dcmpun>:
test_aeabi_dcmpun():
/Users/Luppy/stm32bluepill-unittest/src/../lib/nano-float/test/test.c:151
void test_aeabi_dcmpun(void) {
 8001138:	e92d 4ff7 	stmdb	sp!, {r0, r1, r2, r4, r5, r6, r7, r8, r9, sl, fp, lr}
/Users/Luppy/stm32bluepill-unittest/src/../lib/nano-float/test/test.c:152
x = 2205.196;  y = 2205.196;  ri = __wrap___aeabi_dcmpun(x, y); TEST_ASSERT_EQUAL_INT( 0                  , ri );
 800113c:	f20f 1960 	addw	r9, pc, #352	; 0x160
 8001140:	e9d9 8900 	ldrd	r8, r9, [r9]
 8001144:	4e62      	ldr	r6, [pc, #392]	; (80012d0 <test_aeabi_dcmpun+0x198>)
 8001146:	4d63      	ldr	r5, [pc, #396]	; (80012d4 <test_aeabi_dcmpun+0x19c>)
 8001148:	e9c6 8900 	strd	r8, r9, [r6]
 800114c:	e9c5 8900 	strd	r8, r9, [r5]
 8001150:	e9d6 0100 	ldrd	r0, r1, [r6]
 8001154:	e9d5 2300 	ldrd	r2, r3, [r5]
 8001158:	f003 fcee 	bl	8004b38 <__wrap___aeabi_dcmpun>
 800115c:	2714      	movs	r7, #20
 800115e:	2200      	movs	r2, #0
 8001160:	4c5d      	ldr	r4, [pc, #372]	; (80012d8 <test_aeabi_dcmpun+0x1a0>)
 8001162:	9700      	str	r7, [sp, #0]
 8001164:	6020      	str	r0, [r4, #0]
 8001166:	6821      	ldr	r1, [r4, #0]
 8001168:	4610      	mov	r0, r2
 800116a:	2398      	movs	r3, #152	; 0x98
 800116c:	f003 fb18 	bl	80047a0 <UnityAssertEqualNumber>
/Users/Luppy/stm32bluepill-unittest/src/../lib/nano-float/test/test.c:153
x = 2205.196;  y = 2205.195;  ri = __wrap___aeabi_dcmpun(x, y); TEST_ASSERT_EQUAL_INT( 1                  , ri );
 8001170:	a34d      	add	r3, pc, #308	; (adr r3, 80012a8 <test_aeabi_dcmpun+0x170>)
 8001172:	e9d3 2300 	ldrd	r2, r3, [r3]
 8001176:	e9c6 8900 	strd	r8, r9, [r6]
 800117a:	e9c5 2300 	strd	r2, r3, [r5]
 800117e:	e9d6 0100 	ldrd	r0, r1, [r6]
 8001182:	e9d5 2300 	ldrd	r2, r3, [r5]
 8001186:	f003 fcd7 	bl	8004b38 <__wrap___aeabi_dcmpun>
 800118a:	6020      	str	r0, [r4, #0]
 800118c:	6821      	ldr	r1, [r4, #0]
 800118e:	9700      	str	r7, [sp, #0]
 8001190:	2399      	movs	r3, #153	; 0x99
 8001192:	2200      	movs	r2, #0
 8001194:	2001      	movs	r0, #1
 8001196:	f003 fb03 	bl	80047a0 <UnityAssertEqualNumber>
/Users/Luppy/stm32bluepill-unittest/src/../lib/nano-float/test/test.c:154
x = 2205.196;  y = 2205.197;  ri = __wrap___aeabi_dcmpun(x, y); TEST_ASSERT_EQUAL_INT( 1                  , ri );
 800119a:	a345      	add	r3, pc, #276	; (adr r3, 80012b0 <test_aeabi_dcmpun+0x178>)
 800119c:	e9d3 2300 	ldrd	r2, r3, [r3]
 80011a0:	e9c6 8900 	strd	r8, r9, [r6]
 80011a4:	e9c5 2300 	strd	r2, r3, [r5]
 80011a8:	e9d6 0100 	ldrd	r0, r1, [r6]
 80011ac:	e9d5 2300 	ldrd	r2, r3, [r5]
 80011b0:	f003 fcc2 	bl	8004b38 <__wrap___aeabi_dcmpun>
/Users/Luppy/stm32bluepill-unittest/src/../lib/nano-float/test/test.c:155
x = 2205.196;  y = 0;         ri = __wrap___aeabi_dcmpun(x, y); TEST_ASSERT_EQUAL_INT( 1                  , ri );
 80011b4:	f04f 0a00 	mov.w	sl, #0
 80011b8:	f04f 0b00 	mov.w	fp, #0
/Users/Luppy/stm32bluepill-unittest/src/../lib/nano-float/test/test.c:154
x = 2205.196;  y = 2205.197;  ri = __wrap___aeabi_dcmpun(x, y); TEST_ASSERT_EQUAL_INT( 1                  , ri );
 80011bc:	6020      	str	r0, [r4, #0]
 80011be:	6821      	ldr	r1, [r4, #0]
 80011c0:	9700      	str	r7, [sp, #0]
 80011c2:	239a      	movs	r3, #154	; 0x9a
 80011c4:	2200      	movs	r2, #0
 80011c6:	2001      	movs	r0, #1
 80011c8:	f003 faea 	bl	80047a0 <UnityAssertEqualNumber>
/Users/Luppy/stm32bluepill-unittest/src/../lib/nano-float/test/test.c:155
x = 2205.196;  y = 0;         ri = __wrap___aeabi_dcmpun(x, y); TEST_ASSERT_EQUAL_INT( 1                  , ri );
 80011cc:	e9c6 8900 	strd	r8, r9, [r6]
/Users/Luppy/stm32bluepill-unittest/src/../lib/nano-float/test/test.c:156
x = -2205.196; y = -2205.196; ri = __wrap___aeabi_dcmpun(x, y); TEST_ASSERT_EQUAL_INT( 0                  , ri );
 80011d0:	f20f 09e4 	addw	r9, pc, #228	; 0xe4
 80011d4:	e9d9 8900 	ldrd	r8, r9, [r9]
/Users/Luppy/stm32bluepill-unittest/src/../lib/nano-float/test/test.c:155
x = 2205.196;  y = 0;         ri = __wrap___aeabi_dcmpun(x, y); TEST_ASSERT_EQUAL_INT( 1                  , ri );
 80011d8:	e9c5 ab00 	strd	sl, fp, [r5]
 80011dc:	e9d6 0100 	ldrd	r0, r1, [r6]
 80011e0:	e9d5 2300 	ldrd	r2, r3, [r5]
 80011e4:	f003 fca8 	bl	8004b38 <__wrap___aeabi_dcmpun>
 80011e8:	6020      	str	r0, [r4, #0]
 80011ea:	6821      	ldr	r1, [r4, #0]
 80011ec:	9700      	str	r7, [sp, #0]
 80011ee:	239b      	movs	r3, #155	; 0x9b
 80011f0:	2200      	movs	r2, #0
 80011f2:	2001      	movs	r0, #1
 80011f4:	f003 fad4 	bl	80047a0 <UnityAssertEqualNumber>
/Users/Luppy/stm32bluepill-unittest/src/../lib/nano-float/test/test.c:156
x = -2205.196; y = -2205.196; ri = __wrap___aeabi_dcmpun(x, y); TEST_ASSERT_EQUAL_INT( 0                  , ri );
 80011f8:	e9c6 8900 	strd	r8, r9, [r6]
 80011fc:	e9c5 8900 	strd	r8, r9, [r5]
 8001200:	e9d6 0100 	ldrd	r0, r1, [r6]
 8001204:	e9d5 2300 	ldrd	r2, r3, [r5]
 8001208:	f003 fc96 	bl	8004b38 <__wrap___aeabi_dcmpun>
 800120c:	2200      	movs	r2, #0
 800120e:	6020      	str	r0, [r4, #0]
 8001210:	6821      	ldr	r1, [r4, #0]
 8001212:	4610      	mov	r0, r2
 8001214:	9700      	str	r7, [sp, #0]
 8001216:	239c      	movs	r3, #156	; 0x9c
 8001218:	f003 fac2 	bl	80047a0 <UnityAssertEqualNumber>
/Users/Luppy/stm32bluepill-unittest/src/../lib/nano-float/test/test.c:157
x = -2205.196; y = -2205.195; ri = __wrap___aeabi_dcmpun(x, y); TEST_ASSERT_EQUAL_INT( 1                  , ri );
 800121c:	a328      	add	r3, pc, #160	; (adr r3, 80012c0 <test_aeabi_dcmpun+0x188>)
 800121e:	e9d3 2300 	ldrd	r2, r3, [r3]
 8001222:	e9c6 8900 	strd	r8, r9, [r6]
 8001226:	e9c5 2300 	strd	r2, r3, [r5]
 800122a:	e9d6 0100 	ldrd	r0, r1, [r6]
 800122e:	e9d5 2300 	ldrd	r2, r3, [r5]
 8001232:	f003 fc81 	bl	8004b38 <__wrap___aeabi_dcmpun>
 8001236:	6020      	str	r0, [r4, #0]
 8001238:	6821      	ldr	r1, [r4, #0]
 800123a:	9700      	str	r7, [sp, #0]
 800123c:	239d      	movs	r3, #157	; 0x9d
 800123e:	2200      	movs	r2, #0
 8001240:	2001      	movs	r0, #1
 8001242:	f003 faad 	bl	80047a0 <UnityAssertEqualNumber>
/Users/Luppy/stm32bluepill-unittest/src/../lib/nano-float/test/test.c:158
x = -2205.196; y = -2205.197; ri = __wrap___aeabi_dcmpun(x, y); TEST_ASSERT_EQUAL_INT( 1                  , ri );
 8001246:	a320      	add	r3, pc, #128	; (adr r3, 80012c8 <test_aeabi_dcmpun+0x190>)
 8001248:	e9d3 2300 	ldrd	r2, r3, [r3]
 800124c:	e9c6 8900 	strd	r8, r9, [r6]
 8001250:	e9c5 2300 	strd	r2, r3, [r5]
 8001254:	e9d6 0100 	ldrd	r0, r1, [r6]
 8001258:	e9d5 2300 	ldrd	r2, r3, [r5]
 800125c:	f003 fc6c 	bl	8004b38 <__wrap___aeabi_dcmpun>
 8001260:	6020      	str	r0, [r4, #0]
 8001262:	6821      	ldr	r1, [r4, #0]
 8001264:	9700      	str	r7, [sp, #0]
 8001266:	239e      	movs	r3, #158	; 0x9e
 8001268:	2200      	movs	r2, #0
 800126a:	2001      	movs	r0, #1
 800126c:	f003 fa98 	bl	80047a0 <UnityAssertEqualNumber>
/Users/Luppy/stm32bluepill-unittest/src/../lib/nano-float/test/test.c:159
x = -2205.196; y = 0;         ri = __wrap___aeabi_dcmpun(x, y); TEST_ASSERT_EQUAL_INT( 1                  , ri );
 8001270:	e9c6 8900 	strd	r8, r9, [r6]
 8001274:	e9c5 ab00 	strd	sl, fp, [r5]
 8001278:	e9d6 0100 	ldrd	r0, r1, [r6]
 800127c:	e9d5 2300 	ldrd	r2, r3, [r5]
 8001280:	f003 fc5a 	bl	8004b38 <__wrap___aeabi_dcmpun>
 8001284:	6020      	str	r0, [r4, #0]
 8001286:	6821      	ldr	r1, [r4, #0]
 8001288:	9700      	str	r7, [sp, #0]
 800128a:	239f      	movs	r3, #159	; 0x9f
 800128c:	2200      	movs	r2, #0
 800128e:	2001      	movs	r0, #1
 8001290:	f003 fa86 	bl	80047a0 <UnityAssertEqualNumber>
/Users/Luppy/stm32bluepill-unittest/src/../lib/nano-float/test/test.c:160
}
 8001294:	b003      	add	sp, #12
 8001296:	e8bd 8ff0 	ldmia.w	sp!, {r4, r5, r6, r7, r8, r9, sl, fp, pc}
 800129a:	bf00      	nop
 800129c:	f3af 8000 	nop.w
 80012a0:	5a1cac08 	.word	0x5a1cac08
 80012a4:	40a13a64 	.word	0x40a13a64
 80012a8:	d70a3d71 	.word	0xd70a3d71
 80012ac:	40a13a63 	.word	0x40a13a63
 80012b0:	dd2f1aa0 	.word	0xdd2f1aa0
 80012b4:	40a13a64 	.word	0x40a13a64
 80012b8:	5a1cac08 	.word	0x5a1cac08
 80012bc:	c0a13a64 	.word	0xc0a13a64
 80012c0:	d70a3d71 	.word	0xd70a3d71
 80012c4:	c0a13a63 	.word	0xc0a13a63
 80012c8:	dd2f1aa0 	.word	0xdd2f1aa0
 80012cc:	c0a13a64 	.word	0xc0a13a64
 80012d0:	20000018 	.word	0x20000018
 80012d4:	20000028 	.word	0x20000028
 80012d8:	2000000c 	.word	0x2000000c

080012dc <test_aeabi_fdiv>:
test_aeabi_fdiv():
/Users/Luppy/stm32bluepill-unittest/src/../lib/nano-float/test/test.c:162
void test_aeabi_fdiv(void) {
 80012dc:	e92d 4ff7 	stmdb	sp!, {r0, r1, r2, r4, r5, r6, r7, r8, r9, sl, fp, lr}
/Users/Luppy/stm32bluepill-unittest/src/../lib/nano-float/test/test.c:164
xf = 2205.1969;  yf = 270.8886;   rf = xf / yf;                       TEST_ASSERT_EQUAL_FLOAT( 8.140604292687105, rf );
 80012e0:	4e33      	ldr	r6, [pc, #204]	; (80013b0 <test_aeabi_fdiv+0xd4>)
 80012e2:	4d34      	ldr	r5, [pc, #208]	; (80013b4 <test_aeabi_fdiv+0xd8>)
 80012e4:	f8df 90dc 	ldr.w	r9, [pc, #220]	; 80013c4 <test_aeabi_fdiv+0xe8>
 80012e8:	f8df a0dc 	ldr.w	sl, [pc, #220]	; 80013c8 <test_aeabi_fdiv+0xec>
 80012ec:	f8c6 9000 	str.w	r9, [r6]
 80012f0:	f8c5 a000 	str.w	sl, [r5]
 80012f4:	6830      	ldr	r0, [r6, #0]
 80012f6:	6829      	ldr	r1, [r5, #0]
 80012f8:	f005 fa0c 	bl	8006714 <__aeabi_fdiv>
 80012fc:	23a4      	movs	r3, #164	; 0xa4
 80012fe:	4c2e      	ldr	r4, [pc, #184]	; (80013b8 <test_aeabi_fdiv+0xdc>)
 8001300:	f8df 80c8 	ldr.w	r8, [pc, #200]	; 80013cc <test_aeabi_fdiv+0xf0>
 8001304:	4f2d      	ldr	r7, [pc, #180]	; (80013bc <test_aeabi_fdiv+0xe0>)
 8001306:	6020      	str	r0, [r4, #0]
 8001308:	6822      	ldr	r2, [r4, #0]
 800130a:	9300      	str	r3, [sp, #0]
 800130c:	4641      	mov	r1, r8
 800130e:	2300      	movs	r3, #0
 8001310:	4638      	mov	r0, r7
 8001312:	f003 fa71 	bl	80047f8 <UnityAssertFloatsWithin>
/Users/Luppy/stm32bluepill-unittest/src/../lib/nano-float/test/test.c:165
xf = 2205.1969;  yf = 270.8886;   rf = __wrap___aeabi_fdiv(xf, yf);   TEST_ASSERT_EQUAL_FLOAT( 8.140604292687105  , rf );
 8001316:	f8c6 9000 	str.w	r9, [r6]
 800131a:	f8c5 a000 	str.w	sl, [r5]
 800131e:	6830      	ldr	r0, [r6, #0]
 8001320:	6829      	ldr	r1, [r5, #0]
 8001322:	f003 fc23 	bl	8004b6c <__wrap___aeabi_fdiv>
 8001326:	23a5      	movs	r3, #165	; 0xa5
 8001328:	6020      	str	r0, [r4, #0]
 800132a:	6822      	ldr	r2, [r4, #0]
 800132c:	9300      	str	r3, [sp, #0]
 800132e:	4641      	mov	r1, r8
 8001330:	4638      	mov	r0, r7
 8001332:	2300      	movs	r3, #0
 8001334:	f003 fa60 	bl	80047f8 <UnityAssertFloatsWithin>
/Users/Luppy/stm32bluepill-unittest/src/../lib/nano-float/test/test.c:166
xf = -2205.1969; yf = 270.8886;   rf = __wrap___aeabi_fdiv(xf, yf);   TEST_ASSERT_EQUAL_FLOAT( -8.140604292687105 , rf );
 8001338:	4b21      	ldr	r3, [pc, #132]	; (80013c0 <test_aeabi_fdiv+0xe4>)
 800133a:	f8df b094 	ldr.w	fp, [pc, #148]	; 80013d0 <test_aeabi_fdiv+0xf4>
 800133e:	6033      	str	r3, [r6, #0]
 8001340:	f8c5 a000 	str.w	sl, [r5]
 8001344:	6830      	ldr	r0, [r6, #0]
 8001346:	6829      	ldr	r1, [r5, #0]
 8001348:	f003 fc10 	bl	8004b6c <__wrap___aeabi_fdiv>
 800134c:	23a6      	movs	r3, #166	; 0xa6
 800134e:	f8df a084 	ldr.w	sl, [pc, #132]	; 80013d4 <test_aeabi_fdiv+0xf8>
 8001352:	6020      	str	r0, [r4, #0]
 8001354:	6822      	ldr	r2, [r4, #0]
 8001356:	9300      	str	r3, [sp, #0]
 8001358:	4659      	mov	r1, fp
 800135a:	2300      	movs	r3, #0
 800135c:	4650      	mov	r0, sl
 800135e:	f003 fa4b 	bl	80047f8 <UnityAssertFloatsWithin>
/Users/Luppy/stm32bluepill-unittest/src/../lib/nano-float/test/test.c:167
xf = 2205.1969;  yf = -270.8886;  rf = __wrap___aeabi_fdiv(xf, yf);   TEST_ASSERT_EQUAL_FLOAT( -8.140604292687105 , rf );
 8001362:	f8c6 9000 	str.w	r9, [r6]
 8001366:	f8df 9070 	ldr.w	r9, [pc, #112]	; 80013d8 <test_aeabi_fdiv+0xfc>
 800136a:	f8c5 9000 	str.w	r9, [r5]
 800136e:	6830      	ldr	r0, [r6, #0]
 8001370:	6829      	ldr	r1, [r5, #0]
 8001372:	f003 fbfb 	bl	8004b6c <__wrap___aeabi_fdiv>
 8001376:	23a7      	movs	r3, #167	; 0xa7
 8001378:	6020      	str	r0, [r4, #0]
 800137a:	6822      	ldr	r2, [r4, #0]
 800137c:	9300      	str	r3, [sp, #0]
 800137e:	4659      	mov	r1, fp
 8001380:	4650      	mov	r0, sl
 8001382:	2300      	movs	r3, #0
 8001384:	f003 fa38 	bl	80047f8 <UnityAssertFloatsWithin>
/Users/Luppy/stm32bluepill-unittest/src/../lib/nano-float/test/test.c:168
xf = -2205.1969; yf = -270.8886;  rf = __wrap___aeabi_fdiv(xf, yf);   TEST_ASSERT_EQUAL_FLOAT( 8.140604292687105  , rf );
 8001388:	4b0d      	ldr	r3, [pc, #52]	; (80013c0 <test_aeabi_fdiv+0xe4>)
 800138a:	6033      	str	r3, [r6, #0]
 800138c:	f8c5 9000 	str.w	r9, [r5]
 8001390:	6830      	ldr	r0, [r6, #0]
 8001392:	6829      	ldr	r1, [r5, #0]
 8001394:	f003 fbea 	bl	8004b6c <__wrap___aeabi_fdiv>
 8001398:	23a8      	movs	r3, #168	; 0xa8
 800139a:	6020      	str	r0, [r4, #0]
 800139c:	9300      	str	r3, [sp, #0]
 800139e:	6822      	ldr	r2, [r4, #0]
 80013a0:	2300      	movs	r3, #0
 80013a2:	4641      	mov	r1, r8
 80013a4:	4638      	mov	r0, r7
 80013a6:	f003 fa27 	bl	80047f8 <UnityAssertFloatsWithin>
/Users/Luppy/stm32bluepill-unittest/src/../lib/nano-float/test/test.c:169
}
 80013aa:	b003      	add	sp, #12
 80013ac:	e8bd 8ff0 	ldmia.w	sp!, {r4, r5, r6, r7, r8, r9, sl, fp, pc}
 80013b0:	20000020 	.word	0x20000020
 80013b4:	20000030 	.word	0x20000030
 80013b8:	20000008 	.word	0x20000008
 80013bc:	370893a1 	.word	0x370893a1
 80013c0:	c509d327 	.word	0xc509d327
 80013c4:	4509d327 	.word	0x4509d327
 80013c8:	438771be 	.word	0x438771be
 80013cc:	41023fea 	.word	0x41023fea
 80013d0:	c1023fea 	.word	0xc1023fea
 80013d4:	b70893a1 	.word	0xb70893a1
 80013d8:	c38771be 	.word	0xc38771be
 80013dc:	00000000 	.word	0x00000000

080013e0 <test_aeabi_fadd>:
test_aeabi_fadd():
/Users/Luppy/stm32bluepill-unittest/src/../lib/nano-float/test/test.c:171
void test_aeabi_fadd(void) {
 80013e0:	e92d 47ff 	stmdb	sp!, {r0, r1, r2, r3, r4, r5, r6, r7, r8, r9, sl, lr}
/Users/Luppy/stm32bluepill-unittest/src/../lib/nano-float/test/test.c:172
xf = 2205.1969;  yf = 270.8886;  rf = __wrap___aeabi_fadd(xf, yf);   TEST_ASSERT_EQUAL_DOUBLE( 2476.0855          , rf );
 80013e4:	4e4a      	ldr	r6, [pc, #296]	; (8001510 <test_aeabi_fadd+0x130>)
 80013e6:	4d4b      	ldr	r5, [pc, #300]	; (8001514 <test_aeabi_fadd+0x134>)
 80013e8:	f8df 8130 	ldr.w	r8, [pc, #304]	; 800151c <test_aeabi_fadd+0x13c>
 80013ec:	f8df a130 	ldr.w	sl, [pc, #304]	; 8001520 <test_aeabi_fadd+0x140>
 80013f0:	f8c6 8000 	str.w	r8, [r6]
 80013f4:	f8c5 a000 	str.w	sl, [r5]
 80013f8:	6830      	ldr	r0, [r6, #0]
 80013fa:	6829      	ldr	r1, [r5, #0]
 80013fc:	f003 fbbe 	bl	8004b7c <__wrap___aeabi_fadd>
 8001400:	2700      	movs	r7, #0
 8001402:	23ac      	movs	r3, #172	; 0xac
 8001404:	4c44      	ldr	r4, [pc, #272]	; (8001518 <test_aeabi_fadd+0x138>)
 8001406:	e9cd 7302 	strd	r7, r3, [sp, #8]
 800140a:	6020      	str	r0, [r4, #0]
 800140c:	6820      	ldr	r0, [r4, #0]
 800140e:	f004 fc3f 	bl	8005c90 <__aeabi_f2d>
 8001412:	a32f      	add	r3, pc, #188	; (adr r3, 80014d0 <test_aeabi_fadd+0xf0>)
 8001414:	e9d3 2300 	ldrd	r2, r3, [r3]
/Users/Luppy/stm32bluepill-unittest/src/../lib/nano-float/test/test.c:173
xf = -2205.1969; yf = 270.8886;  rf = __wrap___aeabi_fadd(xf, yf);   TEST_ASSERT_EQUAL_DOUBLE( -1934.3083         , rf );
 8001418:	f8df 9108 	ldr.w	r9, [pc, #264]	; 8001524 <test_aeabi_fadd+0x144>
/Users/Luppy/stm32bluepill-unittest/src/../lib/nano-float/test/test.c:172
xf = 2205.1969;  yf = 270.8886;  rf = __wrap___aeabi_fadd(xf, yf);   TEST_ASSERT_EQUAL_DOUBLE( 2476.0855          , rf );
 800141c:	e9cd 0100 	strd	r0, r1, [sp]
 8001420:	a12d      	add	r1, pc, #180	; (adr r1, 80014d8 <test_aeabi_fadd+0xf8>)
 8001422:	e9d1 0100 	ldrd	r0, r1, [r1]
 8001426:	f003 fa13 	bl	8004850 <UnityAssertDoublesWithin>
/Users/Luppy/stm32bluepill-unittest/src/../lib/nano-float/test/test.c:173
xf = -2205.1969; yf = 270.8886;  rf = __wrap___aeabi_fadd(xf, yf);   TEST_ASSERT_EQUAL_DOUBLE( -1934.3083         , rf );
 800142a:	f8c6 9000 	str.w	r9, [r6]
 800142e:	f8c5 a000 	str.w	sl, [r5]
 8001432:	6830      	ldr	r0, [r6, #0]
 8001434:	6829      	ldr	r1, [r5, #0]
 8001436:	f003 fba1 	bl	8004b7c <__wrap___aeabi_fadd>
 800143a:	23ad      	movs	r3, #173	; 0xad
 800143c:	6020      	str	r0, [r4, #0]
 800143e:	6820      	ldr	r0, [r4, #0]
 8001440:	e9cd 7302 	strd	r7, r3, [sp, #8]
 8001444:	f004 fc24 	bl	8005c90 <__aeabi_f2d>
 8001448:	a325      	add	r3, pc, #148	; (adr r3, 80014e0 <test_aeabi_fadd+0x100>)
 800144a:	e9d3 2300 	ldrd	r2, r3, [r3]
 800144e:	e9cd 0100 	strd	r0, r1, [sp]
 8001452:	a125      	add	r1, pc, #148	; (adr r1, 80014e8 <test_aeabi_fadd+0x108>)
 8001454:	e9d1 0100 	ldrd	r0, r1, [r1]
 8001458:	f003 f9fa 	bl	8004850 <UnityAssertDoublesWithin>
/Users/Luppy/stm32bluepill-unittest/src/../lib/nano-float/test/test.c:174
xf = 2205.1969;  yf = -270.8886; rf = __wrap___aeabi_fadd(xf, yf);   TEST_ASSERT_EQUAL_DOUBLE( 1934.3083          , rf );
 800145c:	f8c6 8000 	str.w	r8, [r6]
 8001460:	f8df 80c4 	ldr.w	r8, [pc, #196]	; 8001528 <test_aeabi_fadd+0x148>
 8001464:	f8c5 8000 	str.w	r8, [r5]
 8001468:	6830      	ldr	r0, [r6, #0]
 800146a:	6829      	ldr	r1, [r5, #0]
 800146c:	f003 fb86 	bl	8004b7c <__wrap___aeabi_fadd>
 8001470:	23ae      	movs	r3, #174	; 0xae
 8001472:	6020      	str	r0, [r4, #0]
 8001474:	6820      	ldr	r0, [r4, #0]
 8001476:	e9cd 7302 	strd	r7, r3, [sp, #8]
 800147a:	f004 fc09 	bl	8005c90 <__aeabi_f2d>
 800147e:	a31c      	add	r3, pc, #112	; (adr r3, 80014f0 <test_aeabi_fadd+0x110>)
 8001480:	e9d3 2300 	ldrd	r2, r3, [r3]
 8001484:	e9cd 0100 	strd	r0, r1, [sp]
 8001488:	a11b      	add	r1, pc, #108	; (adr r1, 80014f8 <test_aeabi_fadd+0x118>)
 800148a:	e9d1 0100 	ldrd	r0, r1, [r1]
 800148e:	f003 f9df 	bl	8004850 <UnityAssertDoublesWithin>
/Users/Luppy/stm32bluepill-unittest/src/../lib/nano-float/test/test.c:175
xf = -2205.1969; yf = -270.8886; rf = __wrap___aeabi_fadd(xf, yf);   TEST_ASSERT_EQUAL_DOUBLE( -2476.0855         , rf );
 8001492:	f8c6 9000 	str.w	r9, [r6]
 8001496:	f8c5 8000 	str.w	r8, [r5]
 800149a:	6830      	ldr	r0, [r6, #0]
 800149c:	6829      	ldr	r1, [r5, #0]
 800149e:	f003 fb6d 	bl	8004b7c <__wrap___aeabi_fadd>
 80014a2:	23af      	movs	r3, #175	; 0xaf
 80014a4:	6020      	str	r0, [r4, #0]
 80014a6:	6820      	ldr	r0, [r4, #0]
 80014a8:	e9cd 7302 	strd	r7, r3, [sp, #8]
 80014ac:	f004 fbf0 	bl	8005c90 <__aeabi_f2d>
 80014b0:	a313      	add	r3, pc, #76	; (adr r3, 8001500 <test_aeabi_fadd+0x120>)
 80014b2:	e9d3 2300 	ldrd	r2, r3, [r3]
 80014b6:	e9cd 0100 	strd	r0, r1, [sp]
 80014ba:	a113      	add	r1, pc, #76	; (adr r1, 8001508 <test_aeabi_fadd+0x128>)
 80014bc:	e9d1 0100 	ldrd	r0, r1, [r1]
 80014c0:	f003 f9c6 	bl	8004850 <UnityAssertDoublesWithin>
/Users/Luppy/stm32bluepill-unittest/src/../lib/nano-float/test/test.c:176
}
 80014c4:	b004      	add	sp, #16
 80014c6:	e8bd 87f0 	ldmia.w	sp!, {r4, r5, r6, r7, r8, r9, sl, pc}
 80014ca:	bf00      	nop
 80014cc:	f3af 8000 	nop.w
 80014d0:	c6a7ef9e 	.word	0xc6a7ef9e
 80014d4:	40a3582b 	.word	0x40a3582b
 80014d8:	47d3c2fa 	.word	0x47d3c2fa
 80014dc:	3f6448ba 	.word	0x3f6448ba
 80014e0:	b2fec56d 	.word	0xb2fec56d
 80014e4:	c09e393b 	.word	0xc09e393b
 80014e8:	b8e36ea1 	.word	0xb8e36ea1
 80014ec:	bf5fb113 	.word	0xbf5fb113
 80014f0:	b2fec56d 	.word	0xb2fec56d
 80014f4:	409e393b 	.word	0x409e393b
 80014f8:	b8e36ea1 	.word	0xb8e36ea1
 80014fc:	3f5fb113 	.word	0x3f5fb113
 8001500:	c6a7ef9e 	.word	0xc6a7ef9e
 8001504:	c0a3582b 	.word	0xc0a3582b
 8001508:	47d3c2fa 	.word	0x47d3c2fa
 800150c:	bf6448ba 	.word	0xbf6448ba
 8001510:	20000020 	.word	0x20000020
 8001514:	20000030 	.word	0x20000030
 8001518:	20000008 	.word	0x20000008
 800151c:	4509d327 	.word	0x4509d327
 8001520:	438771be 	.word	0x438771be
 8001524:	c509d327 	.word	0xc509d327
 8001528:	c38771be 	.word	0xc38771be
 800152c:	00000000 	.word	0x00000000

08001530 <test_aeabi_fsub>:
test_aeabi_fsub():
/Users/Luppy/stm32bluepill-unittest/src/../lib/nano-float/test/test.c:178
void test_aeabi_fsub(void) {
 8001530:	e92d 47ff 	stmdb	sp!, {r0, r1, r2, r3, r4, r5, r6, r7, r8, r9, sl, lr}
/Users/Luppy/stm32bluepill-unittest/src/../lib/nano-float/test/test.c:179
xf = 2205.1969;  yf = 270.8886;  rf = __wrap___aeabi_fsub(xf, yf);   TEST_ASSERT_EQUAL_DOUBLE( 1934.3083          , rf );
 8001534:	4e4a      	ldr	r6, [pc, #296]	; (8001660 <test_aeabi_fsub+0x130>)
 8001536:	4d4b      	ldr	r5, [pc, #300]	; (8001664 <test_aeabi_fsub+0x134>)
 8001538:	f8df 8130 	ldr.w	r8, [pc, #304]	; 800166c <test_aeabi_fsub+0x13c>
 800153c:	f8df a130 	ldr.w	sl, [pc, #304]	; 8001670 <test_aeabi_fsub+0x140>
 8001540:	f8c6 8000 	str.w	r8, [r6]
 8001544:	f8c5 a000 	str.w	sl, [r5]
 8001548:	6830      	ldr	r0, [r6, #0]
 800154a:	6829      	ldr	r1, [r5, #0]
 800154c:	f003 fb1e 	bl	8004b8c <__wrap___aeabi_fsub>
 8001550:	2700      	movs	r7, #0
 8001552:	23b3      	movs	r3, #179	; 0xb3
 8001554:	4c44      	ldr	r4, [pc, #272]	; (8001668 <test_aeabi_fsub+0x138>)
 8001556:	e9cd 7302 	strd	r7, r3, [sp, #8]
 800155a:	6020      	str	r0, [r4, #0]
 800155c:	6820      	ldr	r0, [r4, #0]
 800155e:	f004 fb97 	bl	8005c90 <__aeabi_f2d>
 8001562:	a32f      	add	r3, pc, #188	; (adr r3, 8001620 <test_aeabi_fsub+0xf0>)
 8001564:	e9d3 2300 	ldrd	r2, r3, [r3]
/Users/Luppy/stm32bluepill-unittest/src/../lib/nano-float/test/test.c:180
xf = -2205.1969; yf = 270.8886;  rf = __wrap___aeabi_fsub(xf, yf);   TEST_ASSERT_EQUAL_DOUBLE( -2476.0855         , rf );
 8001568:	f8df 9108 	ldr.w	r9, [pc, #264]	; 8001674 <test_aeabi_fsub+0x144>
/Users/Luppy/stm32bluepill-unittest/src/../lib/nano-float/test/test.c:179
xf = 2205.1969;  yf = 270.8886;  rf = __wrap___aeabi_fsub(xf, yf);   TEST_ASSERT_EQUAL_DOUBLE( 1934.3083          , rf );
 800156c:	e9cd 0100 	strd	r0, r1, [sp]
 8001570:	a12d      	add	r1, pc, #180	; (adr r1, 8001628 <test_aeabi_fsub+0xf8>)
 8001572:	e9d1 0100 	ldrd	r0, r1, [r1]
 8001576:	f003 f96b 	bl	8004850 <UnityAssertDoublesWithin>
/Users/Luppy/stm32bluepill-unittest/src/../lib/nano-float/test/test.c:180
xf = -2205.1969; yf = 270.8886;  rf = __wrap___aeabi_fsub(xf, yf);   TEST_ASSERT_EQUAL_DOUBLE( -2476.0855         , rf );
 800157a:	f8c6 9000 	str.w	r9, [r6]
 800157e:	f8c5 a000 	str.w	sl, [r5]
 8001582:	6830      	ldr	r0, [r6, #0]
 8001584:	6829      	ldr	r1, [r5, #0]
 8001586:	f003 fb01 	bl	8004b8c <__wrap___aeabi_fsub>
 800158a:	23b4      	movs	r3, #180	; 0xb4
 800158c:	6020      	str	r0, [r4, #0]
 800158e:	6820      	ldr	r0, [r4, #0]
 8001590:	e9cd 7302 	strd	r7, r3, [sp, #8]
 8001594:	f004 fb7c 	bl	8005c90 <__aeabi_f2d>
 8001598:	a325      	add	r3, pc, #148	; (adr r3, 8001630 <test_aeabi_fsub+0x100>)
 800159a:	e9d3 2300 	ldrd	r2, r3, [r3]
 800159e:	e9cd 0100 	strd	r0, r1, [sp]
 80015a2:	a125      	add	r1, pc, #148	; (adr r1, 8001638 <test_aeabi_fsub+0x108>)
 80015a4:	e9d1 0100 	ldrd	r0, r1, [r1]
 80015a8:	f003 f952 	bl	8004850 <UnityAssertDoublesWithin>
/Users/Luppy/stm32bluepill-unittest/src/../lib/nano-float/test/test.c:181
xf = 2205.1969;  yf = -270.8886; rf = __wrap___aeabi_fsub(xf, yf);   TEST_ASSERT_EQUAL_DOUBLE( 2476.0855          , rf );
 80015ac:	f8c6 8000 	str.w	r8, [r6]
 80015b0:	f8df 80c4 	ldr.w	r8, [pc, #196]	; 8001678 <test_aeabi_fsub+0x148>
 80015b4:	f8c5 8000 	str.w	r8, [r5]
 80015b8:	6830      	ldr	r0, [r6, #0]
 80015ba:	6829      	ldr	r1, [r5, #0]
 80015bc:	f003 fae6 	bl	8004b8c <__wrap___aeabi_fsub>
 80015c0:	23b5      	movs	r3, #181	; 0xb5
 80015c2:	6020      	str	r0, [r4, #0]
 80015c4:	6820      	ldr	r0, [r4, #0]
 80015c6:	e9cd 7302 	strd	r7, r3, [sp, #8]
 80015ca:	f004 fb61 	bl	8005c90 <__aeabi_f2d>
 80015ce:	a31c      	add	r3, pc, #112	; (adr r3, 8001640 <test_aeabi_fsub+0x110>)
 80015d0:	e9d3 2300 	ldrd	r2, r3, [r3]
 80015d4:	e9cd 0100 	strd	r0, r1, [sp]
 80015d8:	a11b      	add	r1, pc, #108	; (adr r1, 8001648 <test_aeabi_fsub+0x118>)
 80015da:	e9d1 0100 	ldrd	r0, r1, [r1]
 80015de:	f003 f937 	bl	8004850 <UnityAssertDoublesWithin>
/Users/Luppy/stm32bluepill-unittest/src/../lib/nano-float/test/test.c:182
xf = -2205.1969; yf = -270.8886; rf = __wrap___aeabi_fsub(xf, yf);   TEST_ASSERT_EQUAL_DOUBLE( -1934.3083         , rf );
 80015e2:	f8c6 9000 	str.w	r9, [r6]
 80015e6:	f8c5 8000 	str.w	r8, [r5]
 80015ea:	6830      	ldr	r0, [r6, #0]
 80015ec:	6829      	ldr	r1, [r5, #0]
 80015ee:	f003 facd 	bl	8004b8c <__wrap___aeabi_fsub>
 80015f2:	23b6      	movs	r3, #182	; 0xb6
 80015f4:	6020      	str	r0, [r4, #0]
 80015f6:	6820      	ldr	r0, [r4, #0]
 80015f8:	e9cd 7302 	strd	r7, r3, [sp, #8]
 80015fc:	f004 fb48 	bl	8005c90 <__aeabi_f2d>
 8001600:	a313      	add	r3, pc, #76	; (adr r3, 8001650 <test_aeabi_fsub+0x120>)
 8001602:	e9d3 2300 	ldrd	r2, r3, [r3]
 8001606:	e9cd 0100 	strd	r0, r1, [sp]
 800160a:	a113      	add	r1, pc, #76	; (adr r1, 8001658 <test_aeabi_fsub+0x128>)
 800160c:	e9d1 0100 	ldrd	r0, r1, [r1]
 8001610:	f003 f91e 	bl	8004850 <UnityAssertDoublesWithin>
/Users/Luppy/stm32bluepill-unittest/src/../lib/nano-float/test/test.c:183
}
 8001614:	b004      	add	sp, #16
 8001616:	e8bd 87f0 	ldmia.w	sp!, {r4, r5, r6, r7, r8, r9, sl, pc}
 800161a:	bf00      	nop
 800161c:	f3af 8000 	nop.w
 8001620:	b2fec56d 	.word	0xb2fec56d
 8001624:	409e393b 	.word	0x409e393b
 8001628:	b8e36ea1 	.word	0xb8e36ea1
 800162c:	3f5fb113 	.word	0x3f5fb113
 8001630:	c6a7ef9e 	.word	0xc6a7ef9e
 8001634:	c0a3582b 	.word	0xc0a3582b
 8001638:	47d3c2fa 	.word	0x47d3c2fa
 800163c:	bf6448ba 	.word	0xbf6448ba
 8001640:	c6a7ef9e 	.word	0xc6a7ef9e
 8001644:	40a3582b 	.word	0x40a3582b
 8001648:	47d3c2fa 	.word	0x47d3c2fa
 800164c:	3f6448ba 	.word	0x3f6448ba
 8001650:	b2fec56d 	.word	0xb2fec56d
 8001654:	c09e393b 	.word	0xc09e393b
 8001658:	b8e36ea1 	.word	0xb8e36ea1
 800165c:	bf5fb113 	.word	0xbf5fb113
 8001660:	20000020 	.word	0x20000020
 8001664:	20000030 	.word	0x20000030
 8001668:	20000008 	.word	0x20000008
 800166c:	4509d327 	.word	0x4509d327
 8001670:	438771be 	.word	0x438771be
 8001674:	c509d327 	.word	0xc509d327
 8001678:	c38771be 	.word	0xc38771be
 800167c:	00000000 	.word	0x00000000

08001680 <test_aeabi_fmul>:
test_aeabi_fmul():
/Users/Luppy/stm32bluepill-unittest/src/../lib/nano-float/test/test.c:185
void test_aeabi_fmul(void) {
 8001680:	e92d 4ff0 	stmdb	sp!, {r4, r5, r6, r7, r8, r9, sl, fp, lr}
/Users/Luppy/stm32bluepill-unittest/src/../lib/nano-float/test/test.c:186
xf = 2205.1969;  yf = 270.8886;  rf = __wrap___aeabi_fmul(xf, yf);   TEST_ASSERT_EQUAL_DOUBLE( 597362.70096534    , rf );
 8001684:	4e42      	ldr	r6, [pc, #264]	; (8001790 <test_aeabi_fmul+0x110>)
 8001686:	4d43      	ldr	r5, [pc, #268]	; (8001794 <test_aeabi_fmul+0x114>)
 8001688:	f8df a110 	ldr.w	sl, [pc, #272]	; 800179c <test_aeabi_fmul+0x11c>
 800168c:	f8df 8110 	ldr.w	r8, [pc, #272]	; 80017a0 <test_aeabi_fmul+0x120>
 8001690:	f8c6 a000 	str.w	sl, [r6]
 8001694:	f8c5 8000 	str.w	r8, [r5]
/Users/Luppy/stm32bluepill-unittest/src/../lib/nano-float/test/test.c:185
void test_aeabi_fmul(void) {
 8001698:	b085      	sub	sp, #20
/Users/Luppy/stm32bluepill-unittest/src/../lib/nano-float/test/test.c:186
xf = 2205.1969;  yf = 270.8886;  rf = __wrap___aeabi_fmul(xf, yf);   TEST_ASSERT_EQUAL_DOUBLE( 597362.70096534    , rf );
 800169a:	6830      	ldr	r0, [r6, #0]
 800169c:	6829      	ldr	r1, [r5, #0]
 800169e:	f003 fa7d 	bl	8004b9c <__wrap___aeabi_fmul>
 80016a2:	2700      	movs	r7, #0
 80016a4:	23ba      	movs	r3, #186	; 0xba
 80016a6:	4c3c      	ldr	r4, [pc, #240]	; (8001798 <test_aeabi_fmul+0x118>)
 80016a8:	e9cd 7302 	strd	r7, r3, [sp, #8]
 80016ac:	6020      	str	r0, [r4, #0]
 80016ae:	6820      	ldr	r0, [r4, #0]
 80016b0:	f004 faee 	bl	8005c90 <__aeabi_f2d>
 80016b4:	a32e      	add	r3, pc, #184	; (adr r3, 8001770 <test_aeabi_fmul+0xf0>)
 80016b6:	e9d3 2300 	ldrd	r2, r3, [r3]
/Users/Luppy/stm32bluepill-unittest/src/../lib/nano-float/test/test.c:187
xf = -2205.1969; yf = 270.8886;  rf = __wrap___aeabi_fmul(xf, yf);   TEST_ASSERT_EQUAL_DOUBLE( -597362.70096534   , rf );
 80016ba:	f8df b0e8 	ldr.w	fp, [pc, #232]	; 80017a4 <test_aeabi_fmul+0x124>
/Users/Luppy/stm32bluepill-unittest/src/../lib/nano-float/test/test.c:186
xf = 2205.1969;  yf = 270.8886;  rf = __wrap___aeabi_fmul(xf, yf);   TEST_ASSERT_EQUAL_DOUBLE( 597362.70096534    , rf );
 80016be:	e9cd 0100 	strd	r0, r1, [sp]
 80016c2:	a12d      	add	r1, pc, #180	; (adr r1, 8001778 <test_aeabi_fmul+0xf8>)
 80016c4:	e9d1 0100 	ldrd	r0, r1, [r1]
 80016c8:	f003 f8c2 	bl	8004850 <UnityAssertDoublesWithin>
/Users/Luppy/stm32bluepill-unittest/src/../lib/nano-float/test/test.c:187
xf = -2205.1969; yf = 270.8886;  rf = __wrap___aeabi_fmul(xf, yf);   TEST_ASSERT_EQUAL_DOUBLE( -597362.70096534   , rf );
 80016cc:	f8c6 b000 	str.w	fp, [r6]
 80016d0:	f8c5 8000 	str.w	r8, [r5]
 80016d4:	6830      	ldr	r0, [r6, #0]
 80016d6:	6829      	ldr	r1, [r5, #0]
 80016d8:	f003 fa60 	bl	8004b9c <__wrap___aeabi_fmul>
 80016dc:	f20f 09a0 	addw	r9, pc, #160	; 0xa0
 80016e0:	e9d9 8900 	ldrd	r8, r9, [r9]
 80016e4:	23bb      	movs	r3, #187	; 0xbb
 80016e6:	6020      	str	r0, [r4, #0]
 80016e8:	6820      	ldr	r0, [r4, #0]
 80016ea:	e9cd 7302 	strd	r7, r3, [sp, #8]
 80016ee:	f004 facf 	bl	8005c90 <__aeabi_f2d>
 80016f2:	4642      	mov	r2, r8
 80016f4:	464b      	mov	r3, r9
 80016f6:	e9cd 0100 	strd	r0, r1, [sp]
 80016fa:	a123      	add	r1, pc, #140	; (adr r1, 8001788 <test_aeabi_fmul+0x108>)
 80016fc:	e9d1 0100 	ldrd	r0, r1, [r1]
 8001700:	f003 f8a6 	bl	8004850 <UnityAssertDoublesWithin>
/Users/Luppy/stm32bluepill-unittest/src/../lib/nano-float/test/test.c:188
xf = 2205.1969;  yf = -270.8886; rf = __wrap___aeabi_fmul(xf, yf);   TEST_ASSERT_EQUAL_DOUBLE( -597362.70096534   , rf );
 8001704:	f8c6 a000 	str.w	sl, [r6]
 8001708:	f8df a09c 	ldr.w	sl, [pc, #156]	; 80017a8 <test_aeabi_fmul+0x128>
 800170c:	f8c5 a000 	str.w	sl, [r5]
 8001710:	6830      	ldr	r0, [r6, #0]
 8001712:	6829      	ldr	r1, [r5, #0]
 8001714:	f003 fa42 	bl	8004b9c <__wrap___aeabi_fmul>
 8001718:	23bc      	movs	r3, #188	; 0xbc
 800171a:	6020      	str	r0, [r4, #0]
 800171c:	6820      	ldr	r0, [r4, #0]
 800171e:	e9cd 7302 	strd	r7, r3, [sp, #8]
 8001722:	f004 fab5 	bl	8005c90 <__aeabi_f2d>
 8001726:	4642      	mov	r2, r8
 8001728:	464b      	mov	r3, r9
 800172a:	e9cd 0100 	strd	r0, r1, [sp]
 800172e:	a116      	add	r1, pc, #88	; (adr r1, 8001788 <test_aeabi_fmul+0x108>)
 8001730:	e9d1 0100 	ldrd	r0, r1, [r1]
 8001734:	f003 f88c 	bl	8004850 <UnityAssertDoublesWithin>
/Users/Luppy/stm32bluepill-unittest/src/../lib/nano-float/test/test.c:189
xf = -2205.1969; yf = -270.8886; rf = __wrap___aeabi_fmul(xf, yf);   TEST_ASSERT_EQUAL_DOUBLE( 597362.70096534    , rf );
 8001738:	f8c6 b000 	str.w	fp, [r6]
 800173c:	f8c5 a000 	str.w	sl, [r5]
 8001740:	6830      	ldr	r0, [r6, #0]
 8001742:	6829      	ldr	r1, [r5, #0]
 8001744:	f003 fa2a 	bl	8004b9c <__wrap___aeabi_fmul>
 8001748:	23bd      	movs	r3, #189	; 0xbd
 800174a:	6020      	str	r0, [r4, #0]
 800174c:	6820      	ldr	r0, [r4, #0]
 800174e:	e9cd 7302 	strd	r7, r3, [sp, #8]
 8001752:	f004 fa9d 	bl	8005c90 <__aeabi_f2d>
 8001756:	a306      	add	r3, pc, #24	; (adr r3, 8001770 <test_aeabi_fmul+0xf0>)
 8001758:	e9d3 2300 	ldrd	r2, r3, [r3]
 800175c:	e9cd 0100 	strd	r0, r1, [sp]
 8001760:	a105      	add	r1, pc, #20	; (adr r1, 8001778 <test_aeabi_fmul+0xf8>)
 8001762:	e9d1 0100 	ldrd	r0, r1, [r1]
 8001766:	f003 f873 	bl	8004850 <UnityAssertDoublesWithin>
/Users/Luppy/stm32bluepill-unittest/src/../lib/nano-float/test/test.c:190
}
 800176a:	b005      	add	sp, #20
 800176c:	e8bd 8ff0 	ldmia.w	sp!, {r4, r5, r6, r7, r8, r9, sl, fp, pc}
 8001770:	66e4edd6 	.word	0x66e4edd6
 8001774:	41223ae5 	.word	0x41223ae5
 8001778:	620fe234 	.word	0x620fe234
 800177c:	3fe31d98 	.word	0x3fe31d98
 8001780:	66e4edd6 	.word	0x66e4edd6
 8001784:	c1223ae5 	.word	0xc1223ae5
 8001788:	620fe234 	.word	0x620fe234
 800178c:	bfe31d98 	.word	0xbfe31d98
 8001790:	20000020 	.word	0x20000020
 8001794:	20000030 	.word	0x20000030
 8001798:	20000008 	.word	0x20000008
 800179c:	4509d327 	.word	0x4509d327
 80017a0:	438771be 	.word	0x438771be
 80017a4:	c509d327 	.word	0xc509d327
 80017a8:	c38771be 	.word	0xc38771be
 80017ac:	00000000 	.word	0x00000000

080017b0 <test_aeabi_d2iz>:
test_aeabi_d2iz():
/Users/Luppy/stm32bluepill-unittest/src/../lib/nano-float/test/test.c:193
x = 0;          ri = __wrap___aeabi_d2iz(x);   TEST_ASSERT_EQUAL_INT( 0                  , ri );
 80017b0:	2200      	movs	r2, #0
 80017b2:	2300      	movs	r3, #0
/Users/Luppy/stm32bluepill-unittest/src/../lib/nano-float/test/test.c:192
void test_aeabi_d2iz(void) {
 80017b4:	b573      	push	{r0, r1, r4, r5, r6, lr}
/Users/Luppy/stm32bluepill-unittest/src/../lib/nano-float/test/test.c:193
x = 0;          ri = __wrap___aeabi_d2iz(x);   TEST_ASSERT_EQUAL_INT( 0                  , ri );
 80017b6:	4d20      	ldr	r5, [pc, #128]	; (8001838 <test_aeabi_d2iz+0x88>)
 80017b8:	2614      	movs	r6, #20
 80017ba:	e9c5 2300 	strd	r2, r3, [r5]
 80017be:	e9d5 0100 	ldrd	r0, r1, [r5]
 80017c2:	f003 f9f3 	bl	8004bac <__wrap___aeabi_d2iz>
 80017c6:	2200      	movs	r2, #0
 80017c8:	4c1c      	ldr	r4, [pc, #112]	; (800183c <test_aeabi_d2iz+0x8c>)
 80017ca:	9600      	str	r6, [sp, #0]
 80017cc:	6020      	str	r0, [r4, #0]
 80017ce:	6821      	ldr	r1, [r4, #0]
 80017d0:	4610      	mov	r0, r2
 80017d2:	23c1      	movs	r3, #193	; 0xc1
 80017d4:	f002 ffe4 	bl	80047a0 <UnityAssertEqualNumber>
/Users/Luppy/stm32bluepill-unittest/src/../lib/nano-float/test/test.c:194
x = 2205.1969;  ri = __wrap___aeabi_d2iz(x);   TEST_ASSERT_EQUAL_INT( 2205               , ri );
 80017d8:	a313      	add	r3, pc, #76	; (adr r3, 8001828 <test_aeabi_d2iz+0x78>)
 80017da:	e9d3 2300 	ldrd	r2, r3, [r3]
 80017de:	e9c5 2300 	strd	r2, r3, [r5]
 80017e2:	e9d5 0100 	ldrd	r0, r1, [r5]
 80017e6:	f003 f9e1 	bl	8004bac <__wrap___aeabi_d2iz>
 80017ea:	6020      	str	r0, [r4, #0]
 80017ec:	6821      	ldr	r1, [r4, #0]
 80017ee:	9600      	str	r6, [sp, #0]
 80017f0:	23c2      	movs	r3, #194	; 0xc2
 80017f2:	2200      	movs	r2, #0
 80017f4:	f640 009d 	movw	r0, #2205	; 0x89d
 80017f8:	f002 ffd2 	bl	80047a0 <UnityAssertEqualNumber>
/Users/Luppy/stm32bluepill-unittest/src/../lib/nano-float/test/test.c:195
x = -2205.1969; ri = __wrap___aeabi_d2iz(x);   TEST_ASSERT_EQUAL_INT( -2205              , ri );
 80017fc:	a30c      	add	r3, pc, #48	; (adr r3, 8001830 <test_aeabi_d2iz+0x80>)
 80017fe:	e9d3 2300 	ldrd	r2, r3, [r3]
 8001802:	e9c5 2300 	strd	r2, r3, [r5]
 8001806:	e9d5 0100 	ldrd	r0, r1, [r5]
 800180a:	f003 f9cf 	bl	8004bac <__wrap___aeabi_d2iz>
 800180e:	6020      	str	r0, [r4, #0]
 8001810:	6821      	ldr	r1, [r4, #0]
 8001812:	9600      	str	r6, [sp, #0]
 8001814:	23c3      	movs	r3, #195	; 0xc3
 8001816:	2200      	movs	r2, #0
 8001818:	4809      	ldr	r0, [pc, #36]	; (8001840 <test_aeabi_d2iz+0x90>)
 800181a:	f002 ffc1 	bl	80047a0 <UnityAssertEqualNumber>
/Users/Luppy/stm32bluepill-unittest/src/../lib/nano-float/test/test.c:196
}
 800181e:	b002      	add	sp, #8
 8001820:	bd70      	pop	{r4, r5, r6, pc}
 8001822:	bf00      	nop
 8001824:	f3af 8000 	nop.w
 8001828:	d013a92a 	.word	0xd013a92a
 800182c:	40a13a64 	.word	0x40a13a64
 8001830:	d013a92a 	.word	0xd013a92a
 8001834:	c0a13a64 	.word	0xc0a13a64
 8001838:	20000018 	.word	0x20000018
 800183c:	2000000c 	.word	0x2000000c
 8001840:	fffff763 	.word	0xfffff763
 8001844:	00000000 	.word	0x00000000

08001848 <test_aeabi_d2uiz>:
test_aeabi_d2uiz():
/Users/Luppy/stm32bluepill-unittest/src/../lib/nano-float/test/test.c:199
x = 0;          ru = __wrap___aeabi_d2uiz(x);  TEST_ASSERT_EQUAL_UINT( 0                  , ru );
 8001848:	2200      	movs	r2, #0
 800184a:	2300      	movs	r3, #0
/Users/Luppy/stm32bluepill-unittest/src/../lib/nano-float/test/test.c:198
void test_aeabi_d2uiz(void) {
 800184c:	b573      	push	{r0, r1, r4, r5, r6, lr}
/Users/Luppy/stm32bluepill-unittest/src/../lib/nano-float/test/test.c:199
x = 0;          ru = __wrap___aeabi_d2uiz(x);  TEST_ASSERT_EQUAL_UINT( 0                  , ru );
 800184e:	4d20      	ldr	r5, [pc, #128]	; (80018d0 <test_aeabi_d2uiz+0x88>)
 8001850:	2624      	movs	r6, #36	; 0x24
 8001852:	e9c5 2300 	strd	r2, r3, [r5]
 8001856:	e9d5 0100 	ldrd	r0, r1, [r5]
 800185a:	f003 f9bd 	bl	8004bd8 <__wrap___aeabi_d2uiz>
 800185e:	2200      	movs	r2, #0
 8001860:	4c1c      	ldr	r4, [pc, #112]	; (80018d4 <test_aeabi_d2uiz+0x8c>)
 8001862:	9600      	str	r6, [sp, #0]
 8001864:	6020      	str	r0, [r4, #0]
 8001866:	6821      	ldr	r1, [r4, #0]
 8001868:	4610      	mov	r0, r2
 800186a:	23c7      	movs	r3, #199	; 0xc7
 800186c:	f002 ff98 	bl	80047a0 <UnityAssertEqualNumber>
/Users/Luppy/stm32bluepill-unittest/src/../lib/nano-float/test/test.c:200
x = 2205.1969;  ru = __wrap___aeabi_d2uiz(x);  TEST_ASSERT_EQUAL_UINT( 2205               , ru );
 8001870:	a313      	add	r3, pc, #76	; (adr r3, 80018c0 <test_aeabi_d2uiz+0x78>)
 8001872:	e9d3 2300 	ldrd	r2, r3, [r3]
 8001876:	e9c5 2300 	strd	r2, r3, [r5]
 800187a:	e9d5 0100 	ldrd	r0, r1, [r5]
 800187e:	f003 f9ab 	bl	8004bd8 <__wrap___aeabi_d2uiz>
 8001882:	6020      	str	r0, [r4, #0]
 8001884:	6821      	ldr	r1, [r4, #0]
 8001886:	9600      	str	r6, [sp, #0]
 8001888:	23c8      	movs	r3, #200	; 0xc8
 800188a:	2200      	movs	r2, #0
 800188c:	f640 009d 	movw	r0, #2205	; 0x89d
 8001890:	f002 ff86 	bl	80047a0 <UnityAssertEqualNumber>
/Users/Luppy/stm32bluepill-unittest/src/../lib/nano-float/test/test.c:201
x = -2205.1969; ru = __wrap___aeabi_d2uiz(x);  TEST_ASSERT_EQUAL_UINT( 0                  , ru );
 8001894:	a30c      	add	r3, pc, #48	; (adr r3, 80018c8 <test_aeabi_d2uiz+0x80>)
 8001896:	e9d3 2300 	ldrd	r2, r3, [r3]
 800189a:	e9c5 2300 	strd	r2, r3, [r5]
 800189e:	e9d5 0100 	ldrd	r0, r1, [r5]
 80018a2:	f003 f999 	bl	8004bd8 <__wrap___aeabi_d2uiz>
 80018a6:	2200      	movs	r2, #0
 80018a8:	6020      	str	r0, [r4, #0]
 80018aa:	6821      	ldr	r1, [r4, #0]
 80018ac:	9600      	str	r6, [sp, #0]
 80018ae:	23c9      	movs	r3, #201	; 0xc9
 80018b0:	4610      	mov	r0, r2
 80018b2:	f002 ff75 	bl	80047a0 <UnityAssertEqualNumber>
/Users/Luppy/stm32bluepill-unittest/src/../lib/nano-float/test/test.c:202
}
 80018b6:	b002      	add	sp, #8
 80018b8:	bd70      	pop	{r4, r5, r6, pc}
 80018ba:	bf00      	nop
 80018bc:	f3af 8000 	nop.w
 80018c0:	d013a92a 	.word	0xd013a92a
 80018c4:	40a13a64 	.word	0x40a13a64
 80018c8:	d013a92a 	.word	0xd013a92a
 80018cc:	c0a13a64 	.word	0xc0a13a64
 80018d0:	20000018 	.word	0x20000018
 80018d4:	20000010 	.word	0x20000010

080018d8 <test_addsf3>:
test_addsf3():
/Users/Luppy/stm32bluepill-unittest/src/../lib/nano-float/test/test.c:204
void test_addsf3(void) {
 80018d8:	e92d 47ff 	stmdb	sp!, {r0, r1, r2, r3, r4, r5, r6, r7, r8, r9, sl, lr}
/Users/Luppy/stm32bluepill-unittest/src/../lib/nano-float/test/test.c:205
xf = 2205.1969;  yf = 270.8886;  rf = __wrap___addsf3(xf, yf);       TEST_ASSERT_EQUAL_DOUBLE( 2476.0855          , rf );
 80018dc:	4e4a      	ldr	r6, [pc, #296]	; (8001a08 <test_addsf3+0x130>)
 80018de:	4d4b      	ldr	r5, [pc, #300]	; (8001a0c <test_addsf3+0x134>)
 80018e0:	f8df 8130 	ldr.w	r8, [pc, #304]	; 8001a14 <test_addsf3+0x13c>
 80018e4:	f8df a130 	ldr.w	sl, [pc, #304]	; 8001a18 <test_addsf3+0x140>
 80018e8:	f8c6 8000 	str.w	r8, [r6]
 80018ec:	f8c5 a000 	str.w	sl, [r5]
 80018f0:	6830      	ldr	r0, [r6, #0]
 80018f2:	6829      	ldr	r1, [r5, #0]
 80018f4:	f003 f98c 	bl	8004c10 <__wrap___addsf3>
 80018f8:	2700      	movs	r7, #0
 80018fa:	23cd      	movs	r3, #205	; 0xcd
 80018fc:	4c44      	ldr	r4, [pc, #272]	; (8001a10 <test_addsf3+0x138>)
 80018fe:	e9cd 7302 	strd	r7, r3, [sp, #8]
 8001902:	6020      	str	r0, [r4, #0]
 8001904:	6820      	ldr	r0, [r4, #0]
 8001906:	f004 f9c3 	bl	8005c90 <__aeabi_f2d>
 800190a:	a32f      	add	r3, pc, #188	; (adr r3, 80019c8 <test_addsf3+0xf0>)
 800190c:	e9d3 2300 	ldrd	r2, r3, [r3]
/Users/Luppy/stm32bluepill-unittest/src/../lib/nano-float/test/test.c:206
xf = -2205.1969; yf = 270.8886;  rf = __wrap___addsf3(xf, yf);       TEST_ASSERT_EQUAL_DOUBLE( -1934.3083         , rf );
 8001910:	f8df 9108 	ldr.w	r9, [pc, #264]	; 8001a1c <test_addsf3+0x144>
/Users/Luppy/stm32bluepill-unittest/src/../lib/nano-float/test/test.c:205
xf = 2205.1969;  yf = 270.8886;  rf = __wrap___addsf3(xf, yf);       TEST_ASSERT_EQUAL_DOUBLE( 2476.0855          , rf );
 8001914:	e9cd 0100 	strd	r0, r1, [sp]
 8001918:	a12d      	add	r1, pc, #180	; (adr r1, 80019d0 <test_addsf3+0xf8>)
 800191a:	e9d1 0100 	ldrd	r0, r1, [r1]
 800191e:	f002 ff97 	bl	8004850 <UnityAssertDoublesWithin>
/Users/Luppy/stm32bluepill-unittest/src/../lib/nano-float/test/test.c:206
xf = -2205.1969; yf = 270.8886;  rf = __wrap___addsf3(xf, yf);       TEST_ASSERT_EQUAL_DOUBLE( -1934.3083         , rf );
 8001922:	f8c6 9000 	str.w	r9, [r6]
 8001926:	f8c5 a000 	str.w	sl, [r5]
 800192a:	6830      	ldr	r0, [r6, #0]
 800192c:	6829      	ldr	r1, [r5, #0]
 800192e:	f003 f96f 	bl	8004c10 <__wrap___addsf3>
 8001932:	23ce      	movs	r3, #206	; 0xce
 8001934:	6020      	str	r0, [r4, #0]
 8001936:	6820      	ldr	r0, [r4, #0]
 8001938:	e9cd 7302 	strd	r7, r3, [sp, #8]
 800193c:	f004 f9a8 	bl	8005c90 <__aeabi_f2d>
 8001940:	a325      	add	r3, pc, #148	; (adr r3, 80019d8 <test_addsf3+0x100>)
 8001942:	e9d3 2300 	ldrd	r2, r3, [r3]
 8001946:	e9cd 0100 	strd	r0, r1, [sp]
 800194a:	a125      	add	r1, pc, #148	; (adr r1, 80019e0 <test_addsf3+0x108>)
 800194c:	e9d1 0100 	ldrd	r0, r1, [r1]
 8001950:	f002 ff7e 	bl	8004850 <UnityAssertDoublesWithin>
/Users/Luppy/stm32bluepill-unittest/src/../lib/nano-float/test/test.c:207
xf = 2205.1969;  yf = -270.8886; rf = __wrap___addsf3(xf, yf);       TEST_ASSERT_EQUAL_DOUBLE( 1934.3083          , rf );
 8001954:	f8c6 8000 	str.w	r8, [r6]
 8001958:	f8df 80c4 	ldr.w	r8, [pc, #196]	; 8001a20 <test_addsf3+0x148>
 800195c:	f8c5 8000 	str.w	r8, [r5]
 8001960:	6830      	ldr	r0, [r6, #0]
 8001962:	6829      	ldr	r1, [r5, #0]
 8001964:	f003 f954 	bl	8004c10 <__wrap___addsf3>
 8001968:	23cf      	movs	r3, #207	; 0xcf
 800196a:	6020      	str	r0, [r4, #0]
 800196c:	6820      	ldr	r0, [r4, #0]
 800196e:	e9cd 7302 	strd	r7, r3, [sp, #8]
 8001972:	f004 f98d 	bl	8005c90 <__aeabi_f2d>
 8001976:	a31c      	add	r3, pc, #112	; (adr r3, 80019e8 <test_addsf3+0x110>)
 8001978:	e9d3 2300 	ldrd	r2, r3, [r3]
 800197c:	e9cd 0100 	strd	r0, r1, [sp]
 8001980:	a11b      	add	r1, pc, #108	; (adr r1, 80019f0 <test_addsf3+0x118>)
 8001982:	e9d1 0100 	ldrd	r0, r1, [r1]
 8001986:	f002 ff63 	bl	8004850 <UnityAssertDoublesWithin>
/Users/Luppy/stm32bluepill-unittest/src/../lib/nano-float/test/test.c:208
xf = -2205.1969; yf = -270.8886; rf = __wrap___addsf3(xf, yf);       TEST_ASSERT_EQUAL_DOUBLE( -2476.0855         , rf );
 800198a:	f8c6 9000 	str.w	r9, [r6]
 800198e:	f8c5 8000 	str.w	r8, [r5]
 8001992:	6830      	ldr	r0, [r6, #0]
 8001994:	6829      	ldr	r1, [r5, #0]
 8001996:	f003 f93b 	bl	8004c10 <__wrap___addsf3>
 800199a:	23d0      	movs	r3, #208	; 0xd0
 800199c:	6020      	str	r0, [r4, #0]
 800199e:	6820      	ldr	r0, [r4, #0]
 80019a0:	e9cd 7302 	strd	r7, r3, [sp, #8]
 80019a4:	f004 f974 	bl	8005c90 <__aeabi_f2d>
 80019a8:	a313      	add	r3, pc, #76	; (adr r3, 80019f8 <test_addsf3+0x120>)
 80019aa:	e9d3 2300 	ldrd	r2, r3, [r3]
 80019ae:	e9cd 0100 	strd	r0, r1, [sp]
 80019b2:	a113      	add	r1, pc, #76	; (adr r1, 8001a00 <test_addsf3+0x128>)
 80019b4:	e9d1 0100 	ldrd	r0, r1, [r1]
 80019b8:	f002 ff4a 	bl	8004850 <UnityAssertDoublesWithin>
/Users/Luppy/stm32bluepill-unittest/src/../lib/nano-float/test/test.c:209
}
 80019bc:	b004      	add	sp, #16
 80019be:	e8bd 87f0 	ldmia.w	sp!, {r4, r5, r6, r7, r8, r9, sl, pc}
 80019c2:	bf00      	nop
 80019c4:	f3af 8000 	nop.w
 80019c8:	c6a7ef9e 	.word	0xc6a7ef9e
 80019cc:	40a3582b 	.word	0x40a3582b
 80019d0:	47d3c2fa 	.word	0x47d3c2fa
 80019d4:	3f6448ba 	.word	0x3f6448ba
 80019d8:	b2fec56d 	.word	0xb2fec56d
 80019dc:	c09e393b 	.word	0xc09e393b
 80019e0:	b8e36ea1 	.word	0xb8e36ea1
 80019e4:	bf5fb113 	.word	0xbf5fb113
 80019e8:	b2fec56d 	.word	0xb2fec56d
 80019ec:	409e393b 	.word	0x409e393b
 80019f0:	b8e36ea1 	.word	0xb8e36ea1
 80019f4:	3f5fb113 	.word	0x3f5fb113
 80019f8:	c6a7ef9e 	.word	0xc6a7ef9e
 80019fc:	c0a3582b 	.word	0xc0a3582b
 8001a00:	47d3c2fa 	.word	0x47d3c2fa
 8001a04:	bf6448ba 	.word	0xbf6448ba
 8001a08:	20000020 	.word	0x20000020
 8001a0c:	20000030 	.word	0x20000030
 8001a10:	20000008 	.word	0x20000008
 8001a14:	4509d327 	.word	0x4509d327
 8001a18:	438771be 	.word	0x438771be
 8001a1c:	c509d327 	.word	0xc509d327
 8001a20:	c38771be 	.word	0xc38771be
 8001a24:	00000000 	.word	0x00000000

08001a28 <test_subsf3>:
test_subsf3():
/Users/Luppy/stm32bluepill-unittest/src/../lib/nano-float/test/test.c:211
void test_subsf3(void) {
 8001a28:	e92d 47ff 	stmdb	sp!, {r0, r1, r2, r3, r4, r5, r6, r7, r8, r9, sl, lr}
/Users/Luppy/stm32bluepill-unittest/src/../lib/nano-float/test/test.c:212
xf = 2205.1969;  yf = 270.8886;  rf = __wrap___subsf3(xf, yf);         TEST_ASSERT_EQUAL_DOUBLE( 1934.3083          , rf );
 8001a2c:	4e4a      	ldr	r6, [pc, #296]	; (8001b58 <test_subsf3+0x130>)
 8001a2e:	4d4b      	ldr	r5, [pc, #300]	; (8001b5c <test_subsf3+0x134>)
 8001a30:	f8df 8130 	ldr.w	r8, [pc, #304]	; 8001b64 <test_subsf3+0x13c>
 8001a34:	f8df a130 	ldr.w	sl, [pc, #304]	; 8001b68 <test_subsf3+0x140>
 8001a38:	f8c6 8000 	str.w	r8, [r6]
 8001a3c:	f8c5 a000 	str.w	sl, [r5]
 8001a40:	6830      	ldr	r0, [r6, #0]
 8001a42:	6829      	ldr	r1, [r5, #0]
 8001a44:	f003 f8ec 	bl	8004c20 <__wrap___subsf3>
 8001a48:	2700      	movs	r7, #0
 8001a4a:	23d4      	movs	r3, #212	; 0xd4
 8001a4c:	4c44      	ldr	r4, [pc, #272]	; (8001b60 <test_subsf3+0x138>)
 8001a4e:	e9cd 7302 	strd	r7, r3, [sp, #8]
 8001a52:	6020      	str	r0, [r4, #0]
 8001a54:	6820      	ldr	r0, [r4, #0]
 8001a56:	f004 f91b 	bl	8005c90 <__aeabi_f2d>
 8001a5a:	a32f      	add	r3, pc, #188	; (adr r3, 8001b18 <test_subsf3+0xf0>)
 8001a5c:	e9d3 2300 	ldrd	r2, r3, [r3]
/Users/Luppy/stm32bluepill-unittest/src/../lib/nano-float/test/test.c:213
xf = -2205.1969; yf = 270.8886;  rf = __wrap___subsf3(xf, yf);         TEST_ASSERT_EQUAL_DOUBLE( -2476.0855         , rf );
 8001a60:	f8df 9108 	ldr.w	r9, [pc, #264]	; 8001b6c <test_subsf3+0x144>
/Users/Luppy/stm32bluepill-unittest/src/../lib/nano-float/test/test.c:212
xf = 2205.1969;  yf = 270.8886;  rf = __wrap___subsf3(xf, yf);         TEST_ASSERT_EQUAL_DOUBLE( 1934.3083          , rf );
 8001a64:	e9cd 0100 	strd	r0, r1, [sp]
 8001a68:	a12d      	add	r1, pc, #180	; (adr r1, 8001b20 <test_subsf3+0xf8>)
 8001a6a:	e9d1 0100 	ldrd	r0, r1, [r1]
 8001a6e:	f002 feef 	bl	8004850 <UnityAssertDoublesWithin>
/Users/Luppy/stm32bluepill-unittest/src/../lib/nano-float/test/test.c:213
xf = -2205.1969; yf = 270.8886;  rf = __wrap___subsf3(xf, yf);         TEST_ASSERT_EQUAL_DOUBLE( -2476.0855         , rf );
 8001a72:	f8c6 9000 	str.w	r9, [r6]
 8001a76:	f8c5 a000 	str.w	sl, [r5]
 8001a7a:	6830      	ldr	r0, [r6, #0]
 8001a7c:	6829      	ldr	r1, [r5, #0]
 8001a7e:	f003 f8cf 	bl	8004c20 <__wrap___subsf3>
 8001a82:	23d5      	movs	r3, #213	; 0xd5
 8001a84:	6020      	str	r0, [r4, #0]
 8001a86:	6820      	ldr	r0, [r4, #0]
 8001a88:	e9cd 7302 	strd	r7, r3, [sp, #8]
 8001a8c:	f004 f900 	bl	8005c90 <__aeabi_f2d>
 8001a90:	a325      	add	r3, pc, #148	; (adr r3, 8001b28 <test_subsf3+0x100>)
 8001a92:	e9d3 2300 	ldrd	r2, r3, [r3]
 8001a96:	e9cd 0100 	strd	r0, r1, [sp]
 8001a9a:	a125      	add	r1, pc, #148	; (adr r1, 8001b30 <test_subsf3+0x108>)
 8001a9c:	e9d1 0100 	ldrd	r0, r1, [r1]
 8001aa0:	f002 fed6 	bl	8004850 <UnityAssertDoublesWithin>
/Users/Luppy/stm32bluepill-unittest/src/../lib/nano-float/test/test.c:214
xf = 2205.1969;  yf = -270.8886; rf = __wrap___subsf3(xf, yf);         TEST_ASSERT_EQUAL_DOUBLE( 2476.0855          , rf );
 8001aa4:	f8c6 8000 	str.w	r8, [r6]
 8001aa8:	f8df 80c4 	ldr.w	r8, [pc, #196]	; 8001b70 <test_subsf3+0x148>
 8001aac:	f8c5 8000 	str.w	r8, [r5]
 8001ab0:	6830      	ldr	r0, [r6, #0]
 8001ab2:	6829      	ldr	r1, [r5, #0]
 8001ab4:	f003 f8b4 	bl	8004c20 <__wrap___subsf3>
 8001ab8:	23d6      	movs	r3, #214	; 0xd6
 8001aba:	6020      	str	r0, [r4, #0]
 8001abc:	6820      	ldr	r0, [r4, #0]
 8001abe:	e9cd 7302 	strd	r7, r3, [sp, #8]
 8001ac2:	f004 f8e5 	bl	8005c90 <__aeabi_f2d>
 8001ac6:	a31c      	add	r3, pc, #112	; (adr r3, 8001b38 <test_subsf3+0x110>)
 8001ac8:	e9d3 2300 	ldrd	r2, r3, [r3]
 8001acc:	e9cd 0100 	strd	r0, r1, [sp]
 8001ad0:	a11b      	add	r1, pc, #108	; (adr r1, 8001b40 <test_subsf3+0x118>)
 8001ad2:	e9d1 0100 	ldrd	r0, r1, [r1]
 8001ad6:	f002 febb 	bl	8004850 <UnityAssertDoublesWithin>
/Users/Luppy/stm32bluepill-unittest/src/../lib/nano-float/test/test.c:215
xf = -2205.1969; yf = -270.8886; rf = __wrap___subsf3(xf, yf);         TEST_ASSERT_EQUAL_DOUBLE( -1934.3083         , rf );
 8001ada:	f8c6 9000 	str.w	r9, [r6]
 8001ade:	f8c5 8000 	str.w	r8, [r5]
 8001ae2:	6830      	ldr	r0, [r6, #0]
 8001ae4:	6829      	ldr	r1, [r5, #0]
 8001ae6:	f003 f89b 	bl	8004c20 <__wrap___subsf3>
 8001aea:	23d7      	movs	r3, #215	; 0xd7
 8001aec:	6020      	str	r0, [r4, #0]
 8001aee:	6820      	ldr	r0, [r4, #0]
 8001af0:	e9cd 7302 	strd	r7, r3, [sp, #8]
 8001af4:	f004 f8cc 	bl	8005c90 <__aeabi_f2d>
 8001af8:	a313      	add	r3, pc, #76	; (adr r3, 8001b48 <test_subsf3+0x120>)
 8001afa:	e9d3 2300 	ldrd	r2, r3, [r3]
 8001afe:	e9cd 0100 	strd	r0, r1, [sp]
 8001b02:	a113      	add	r1, pc, #76	; (adr r1, 8001b50 <test_subsf3+0x128>)
 8001b04:	e9d1 0100 	ldrd	r0, r1, [r1]
 8001b08:	f002 fea2 	bl	8004850 <UnityAssertDoublesWithin>
/Users/Luppy/stm32bluepill-unittest/src/../lib/nano-float/test/test.c:216
}
 8001b0c:	b004      	add	sp, #16
 8001b0e:	e8bd 87f0 	ldmia.w	sp!, {r4, r5, r6, r7, r8, r9, sl, pc}
 8001b12:	bf00      	nop
 8001b14:	f3af 8000 	nop.w
 8001b18:	b2fec56d 	.word	0xb2fec56d
 8001b1c:	409e393b 	.word	0x409e393b
 8001b20:	b8e36ea1 	.word	0xb8e36ea1
 8001b24:	3f5fb113 	.word	0x3f5fb113
 8001b28:	c6a7ef9e 	.word	0xc6a7ef9e
 8001b2c:	c0a3582b 	.word	0xc0a3582b
 8001b30:	47d3c2fa 	.word	0x47d3c2fa
 8001b34:	bf6448ba 	.word	0xbf6448ba
 8001b38:	c6a7ef9e 	.word	0xc6a7ef9e
 8001b3c:	40a3582b 	.word	0x40a3582b
 8001b40:	47d3c2fa 	.word	0x47d3c2fa
 8001b44:	3f6448ba 	.word	0x3f6448ba
 8001b48:	b2fec56d 	.word	0xb2fec56d
 8001b4c:	c09e393b 	.word	0xc09e393b
 8001b50:	b8e36ea1 	.word	0xb8e36ea1
 8001b54:	bf5fb113 	.word	0xbf5fb113
 8001b58:	20000020 	.word	0x20000020
 8001b5c:	20000030 	.word	0x20000030
 8001b60:	20000008 	.word	0x20000008
 8001b64:	4509d327 	.word	0x4509d327
 8001b68:	438771be 	.word	0x438771be
 8001b6c:	c509d327 	.word	0xc509d327
 8001b70:	c38771be 	.word	0xc38771be
 8001b74:	00000000 	.word	0x00000000

08001b78 <test_mulsf3>:
test_mulsf3():
/Users/Luppy/stm32bluepill-unittest/src/../lib/nano-float/test/test.c:218
void test_mulsf3(void) {
 8001b78:	e92d 4ff0 	stmdb	sp!, {r4, r5, r6, r7, r8, r9, sl, fp, lr}
/Users/Luppy/stm32bluepill-unittest/src/../lib/nano-float/test/test.c:219
xf = 2205.1969;  yf = 270.8886;  rf = __wrap___mulsf3(xf, yf);         TEST_ASSERT_EQUAL_DOUBLE( 597362.70096534    , rf );
 8001b7c:	4e42      	ldr	r6, [pc, #264]	; (8001c88 <test_mulsf3+0x110>)
 8001b7e:	4d43      	ldr	r5, [pc, #268]	; (8001c8c <test_mulsf3+0x114>)
 8001b80:	f8df a110 	ldr.w	sl, [pc, #272]	; 8001c94 <test_mulsf3+0x11c>
 8001b84:	f8df 8110 	ldr.w	r8, [pc, #272]	; 8001c98 <test_mulsf3+0x120>
 8001b88:	f8c6 a000 	str.w	sl, [r6]
 8001b8c:	f8c5 8000 	str.w	r8, [r5]
/Users/Luppy/stm32bluepill-unittest/src/../lib/nano-float/test/test.c:218
void test_mulsf3(void) {
 8001b90:	b085      	sub	sp, #20
/Users/Luppy/stm32bluepill-unittest/src/../lib/nano-float/test/test.c:219
xf = 2205.1969;  yf = 270.8886;  rf = __wrap___mulsf3(xf, yf);         TEST_ASSERT_EQUAL_DOUBLE( 597362.70096534    , rf );
 8001b92:	6830      	ldr	r0, [r6, #0]
 8001b94:	6829      	ldr	r1, [r5, #0]
 8001b96:	f003 f84b 	bl	8004c30 <__wrap___mulsf3>
 8001b9a:	2700      	movs	r7, #0
 8001b9c:	23db      	movs	r3, #219	; 0xdb
 8001b9e:	4c3c      	ldr	r4, [pc, #240]	; (8001c90 <test_mulsf3+0x118>)
 8001ba0:	e9cd 7302 	strd	r7, r3, [sp, #8]
 8001ba4:	6020      	str	r0, [r4, #0]
 8001ba6:	6820      	ldr	r0, [r4, #0]
 8001ba8:	f004 f872 	bl	8005c90 <__aeabi_f2d>
 8001bac:	a32e      	add	r3, pc, #184	; (adr r3, 8001c68 <test_mulsf3+0xf0>)
 8001bae:	e9d3 2300 	ldrd	r2, r3, [r3]
/Users/Luppy/stm32bluepill-unittest/src/../lib/nano-float/test/test.c:220
xf = -2205.1969; yf = 270.8886;  rf = __wrap___mulsf3(xf, yf);         TEST_ASSERT_EQUAL_DOUBLE( -597362.70096534   , rf );
 8001bb2:	f8df b0e8 	ldr.w	fp, [pc, #232]	; 8001c9c <test_mulsf3+0x124>
/Users/Luppy/stm32bluepill-unittest/src/../lib/nano-float/test/test.c:219
xf = 2205.1969;  yf = 270.8886;  rf = __wrap___mulsf3(xf, yf);         TEST_ASSERT_EQUAL_DOUBLE( 597362.70096534    , rf );
 8001bb6:	e9cd 0100 	strd	r0, r1, [sp]
 8001bba:	a12d      	add	r1, pc, #180	; (adr r1, 8001c70 <test_mulsf3+0xf8>)
 8001bbc:	e9d1 0100 	ldrd	r0, r1, [r1]
 8001bc0:	f002 fe46 	bl	8004850 <UnityAssertDoublesWithin>
/Users/Luppy/stm32bluepill-unittest/src/../lib/nano-float/test/test.c:220
xf = -2205.1969; yf = 270.8886;  rf = __wrap___mulsf3(xf, yf);         TEST_ASSERT_EQUAL_DOUBLE( -597362.70096534   , rf );
 8001bc4:	f8c6 b000 	str.w	fp, [r6]
 8001bc8:	f8c5 8000 	str.w	r8, [r5]
 8001bcc:	6830      	ldr	r0, [r6, #0]
 8001bce:	6829      	ldr	r1, [r5, #0]
 8001bd0:	f003 f82e 	bl	8004c30 <__wrap___mulsf3>
 8001bd4:	f20f 09a0 	addw	r9, pc, #160	; 0xa0
 8001bd8:	e9d9 8900 	ldrd	r8, r9, [r9]
 8001bdc:	23dc      	movs	r3, #220	; 0xdc
 8001bde:	6020      	str	r0, [r4, #0]
 8001be0:	6820      	ldr	r0, [r4, #0]
 8001be2:	e9cd 7302 	strd	r7, r3, [sp, #8]
 8001be6:	f004 f853 	bl	8005c90 <__aeabi_f2d>
 8001bea:	4642      	mov	r2, r8
 8001bec:	464b      	mov	r3, r9
 8001bee:	e9cd 0100 	strd	r0, r1, [sp]
 8001bf2:	a123      	add	r1, pc, #140	; (adr r1, 8001c80 <test_mulsf3+0x108>)
 8001bf4:	e9d1 0100 	ldrd	r0, r1, [r1]
 8001bf8:	f002 fe2a 	bl	8004850 <UnityAssertDoublesWithin>
/Users/Luppy/stm32bluepill-unittest/src/../lib/nano-float/test/test.c:221
xf = 2205.1969;  yf = -270.8886; rf = __wrap___mulsf3(xf, yf);         TEST_ASSERT_EQUAL_DOUBLE( -597362.70096534   , rf );
 8001bfc:	f8c6 a000 	str.w	sl, [r6]
 8001c00:	f8df a09c 	ldr.w	sl, [pc, #156]	; 8001ca0 <test_mulsf3+0x128>
 8001c04:	f8c5 a000 	str.w	sl, [r5]
 8001c08:	6830      	ldr	r0, [r6, #0]
 8001c0a:	6829      	ldr	r1, [r5, #0]
 8001c0c:	f003 f810 	bl	8004c30 <__wrap___mulsf3>
 8001c10:	23dd      	movs	r3, #221	; 0xdd
 8001c12:	6020      	str	r0, [r4, #0]
 8001c14:	6820      	ldr	r0, [r4, #0]
 8001c16:	e9cd 7302 	strd	r7, r3, [sp, #8]
 8001c1a:	f004 f839 	bl	8005c90 <__aeabi_f2d>
 8001c1e:	4642      	mov	r2, r8
 8001c20:	464b      	mov	r3, r9
 8001c22:	e9cd 0100 	strd	r0, r1, [sp]
 8001c26:	a116      	add	r1, pc, #88	; (adr r1, 8001c80 <test_mulsf3+0x108>)
 8001c28:	e9d1 0100 	ldrd	r0, r1, [r1]
 8001c2c:	f002 fe10 	bl	8004850 <UnityAssertDoublesWithin>
/Users/Luppy/stm32bluepill-unittest/src/../lib/nano-float/test/test.c:222
xf = -2205.1969; yf = -270.8886; rf = __wrap___mulsf3(xf, yf);         TEST_ASSERT_EQUAL_DOUBLE( 597362.70096534    , rf );
 8001c30:	f8c6 b000 	str.w	fp, [r6]
 8001c34:	f8c5 a000 	str.w	sl, [r5]
 8001c38:	6830      	ldr	r0, [r6, #0]
 8001c3a:	6829      	ldr	r1, [r5, #0]
 8001c3c:	f002 fff8 	bl	8004c30 <__wrap___mulsf3>
 8001c40:	23de      	movs	r3, #222	; 0xde
 8001c42:	6020      	str	r0, [r4, #0]
 8001c44:	6820      	ldr	r0, [r4, #0]
 8001c46:	e9cd 7302 	strd	r7, r3, [sp, #8]
 8001c4a:	f004 f821 	bl	8005c90 <__aeabi_f2d>
 8001c4e:	a306      	add	r3, pc, #24	; (adr r3, 8001c68 <test_mulsf3+0xf0>)
 8001c50:	e9d3 2300 	ldrd	r2, r3, [r3]
 8001c54:	e9cd 0100 	strd	r0, r1, [sp]
 8001c58:	a105      	add	r1, pc, #20	; (adr r1, 8001c70 <test_mulsf3+0xf8>)
 8001c5a:	e9d1 0100 	ldrd	r0, r1, [r1]
 8001c5e:	f002 fdf7 	bl	8004850 <UnityAssertDoublesWithin>
/Users/Luppy/stm32bluepill-unittest/src/../lib/nano-float/test/test.c:223
}
 8001c62:	b005      	add	sp, #20
 8001c64:	e8bd 8ff0 	ldmia.w	sp!, {r4, r5, r6, r7, r8, r9, sl, fp, pc}
 8001c68:	66e4edd6 	.word	0x66e4edd6
 8001c6c:	41223ae5 	.word	0x41223ae5
 8001c70:	620fe234 	.word	0x620fe234
 8001c74:	3fe31d98 	.word	0x3fe31d98
 8001c78:	66e4edd6 	.word	0x66e4edd6
 8001c7c:	c1223ae5 	.word	0xc1223ae5
 8001c80:	620fe234 	.word	0x620fe234
 8001c84:	bfe31d98 	.word	0xbfe31d98
 8001c88:	20000020 	.word	0x20000020
 8001c8c:	20000030 	.word	0x20000030
 8001c90:	20000008 	.word	0x20000008
 8001c94:	4509d327 	.word	0x4509d327
 8001c98:	438771be 	.word	0x438771be
 8001c9c:	c509d327 	.word	0xc509d327
 8001ca0:	c38771be 	.word	0xc38771be
 8001ca4:	00000000 	.word	0x00000000

08001ca8 <test_divsf3>:
test_divsf3():
/Users/Luppy/stm32bluepill-unittest/src/../lib/nano-float/test/test.c:225
void test_divsf3(void) {
 8001ca8:	e92d 4ff0 	stmdb	sp!, {r4, r5, r6, r7, r8, r9, sl, fp, lr}
/Users/Luppy/stm32bluepill-unittest/src/../lib/nano-float/test/test.c:226
xf = 2205.1969;  yf = 270.8886;  rf = __wrap___divsf3(xf, yf);         TEST_ASSERT_EQUAL_DOUBLE( 8.140604292687105  , rf );
 8001cac:	4e42      	ldr	r6, [pc, #264]	; (8001db8 <test_divsf3+0x110>)
 8001cae:	4d43      	ldr	r5, [pc, #268]	; (8001dbc <test_divsf3+0x114>)
 8001cb0:	f8df a110 	ldr.w	sl, [pc, #272]	; 8001dc4 <test_divsf3+0x11c>
 8001cb4:	f8df 8110 	ldr.w	r8, [pc, #272]	; 8001dc8 <test_divsf3+0x120>
 8001cb8:	f8c6 a000 	str.w	sl, [r6]
 8001cbc:	f8c5 8000 	str.w	r8, [r5]
/Users/Luppy/stm32bluepill-unittest/src/../lib/nano-float/test/test.c:225
void test_divsf3(void) {
 8001cc0:	b085      	sub	sp, #20
/Users/Luppy/stm32bluepill-unittest/src/../lib/nano-float/test/test.c:226
xf = 2205.1969;  yf = 270.8886;  rf = __wrap___divsf3(xf, yf);         TEST_ASSERT_EQUAL_DOUBLE( 8.140604292687105  , rf );
 8001cc2:	6830      	ldr	r0, [r6, #0]
 8001cc4:	6829      	ldr	r1, [r5, #0]
 8001cc6:	f002 ffbb 	bl	8004c40 <__wrap___divsf3>
 8001cca:	2700      	movs	r7, #0
 8001ccc:	23e2      	movs	r3, #226	; 0xe2
 8001cce:	4c3c      	ldr	r4, [pc, #240]	; (8001dc0 <test_divsf3+0x118>)
 8001cd0:	e9cd 7302 	strd	r7, r3, [sp, #8]
 8001cd4:	6020      	str	r0, [r4, #0]
 8001cd6:	6820      	ldr	r0, [r4, #0]
 8001cd8:	f003 ffda 	bl	8005c90 <__aeabi_f2d>
 8001cdc:	a32e      	add	r3, pc, #184	; (adr r3, 8001d98 <test_divsf3+0xf0>)
 8001cde:	e9d3 2300 	ldrd	r2, r3, [r3]
/Users/Luppy/stm32bluepill-unittest/src/../lib/nano-float/test/test.c:227
xf = -2205.1969; yf = 270.8886;  rf = __wrap___divsf3(xf, yf);         TEST_ASSERT_EQUAL_DOUBLE( -8.140604292687105 , rf );
 8001ce2:	f8df b0e8 	ldr.w	fp, [pc, #232]	; 8001dcc <test_divsf3+0x124>
/Users/Luppy/stm32bluepill-unittest/src/../lib/nano-float/test/test.c:226
xf = 2205.1969;  yf = 270.8886;  rf = __wrap___divsf3(xf, yf);         TEST_ASSERT_EQUAL_DOUBLE( 8.140604292687105  , rf );
 8001ce6:	e9cd 0100 	strd	r0, r1, [sp]
 8001cea:	a12d      	add	r1, pc, #180	; (adr r1, 8001da0 <test_divsf3+0xf8>)
 8001cec:	e9d1 0100 	ldrd	r0, r1, [r1]
 8001cf0:	f002 fdae 	bl	8004850 <UnityAssertDoublesWithin>
/Users/Luppy/stm32bluepill-unittest/src/../lib/nano-float/test/test.c:227
xf = -2205.1969; yf = 270.8886;  rf = __wrap___divsf3(xf, yf);         TEST_ASSERT_EQUAL_DOUBLE( -8.140604292687105 , rf );
 8001cf4:	f8c6 b000 	str.w	fp, [r6]
 8001cf8:	f8c5 8000 	str.w	r8, [r5]
 8001cfc:	6830      	ldr	r0, [r6, #0]
 8001cfe:	6829      	ldr	r1, [r5, #0]
 8001d00:	f002 ff9e 	bl	8004c40 <__wrap___divsf3>
 8001d04:	f20f 09a0 	addw	r9, pc, #160	; 0xa0
 8001d08:	e9d9 8900 	ldrd	r8, r9, [r9]
 8001d0c:	23e3      	movs	r3, #227	; 0xe3
 8001d0e:	6020      	str	r0, [r4, #0]
 8001d10:	6820      	ldr	r0, [r4, #0]
 8001d12:	e9cd 7302 	strd	r7, r3, [sp, #8]
 8001d16:	f003 ffbb 	bl	8005c90 <__aeabi_f2d>
 8001d1a:	4642      	mov	r2, r8
 8001d1c:	464b      	mov	r3, r9
 8001d1e:	e9cd 0100 	strd	r0, r1, [sp]
 8001d22:	a123      	add	r1, pc, #140	; (adr r1, 8001db0 <test_divsf3+0x108>)
 8001d24:	e9d1 0100 	ldrd	r0, r1, [r1]
 8001d28:	f002 fd92 	bl	8004850 <UnityAssertDoublesWithin>
/Users/Luppy/stm32bluepill-unittest/src/../lib/nano-float/test/test.c:228
xf = 2205.1969;  yf = -270.8886; rf = __wrap___divsf3(xf, yf);         TEST_ASSERT_EQUAL_DOUBLE( -8.140604292687105 , rf );
 8001d2c:	f8c6 a000 	str.w	sl, [r6]
 8001d30:	f8df a09c 	ldr.w	sl, [pc, #156]	; 8001dd0 <test_divsf3+0x128>
 8001d34:	f8c5 a000 	str.w	sl, [r5]
 8001d38:	6830      	ldr	r0, [r6, #0]
 8001d3a:	6829      	ldr	r1, [r5, #0]
 8001d3c:	f002 ff80 	bl	8004c40 <__wrap___divsf3>
 8001d40:	23e4      	movs	r3, #228	; 0xe4
 8001d42:	6020      	str	r0, [r4, #0]
 8001d44:	6820      	ldr	r0, [r4, #0]
 8001d46:	e9cd 7302 	strd	r7, r3, [sp, #8]
 8001d4a:	f003 ffa1 	bl	8005c90 <__aeabi_f2d>
 8001d4e:	4642      	mov	r2, r8
 8001d50:	464b      	mov	r3, r9
 8001d52:	e9cd 0100 	strd	r0, r1, [sp]
 8001d56:	a116      	add	r1, pc, #88	; (adr r1, 8001db0 <test_divsf3+0x108>)
 8001d58:	e9d1 0100 	ldrd	r0, r1, [r1]
 8001d5c:	f002 fd78 	bl	8004850 <UnityAssertDoublesWithin>
/Users/Luppy/stm32bluepill-unittest/src/../lib/nano-float/test/test.c:229
xf = -2205.1969; yf = -270.8886; rf = __wrap___divsf3(xf, yf);         TEST_ASSERT_EQUAL_DOUBLE( 8.140604292687105  , rf );
 8001d60:	f8c6 b000 	str.w	fp, [r6]
 8001d64:	f8c5 a000 	str.w	sl, [r5]
 8001d68:	6830      	ldr	r0, [r6, #0]
 8001d6a:	6829      	ldr	r1, [r5, #0]
 8001d6c:	f002 ff68 	bl	8004c40 <__wrap___divsf3>
 8001d70:	23e5      	movs	r3, #229	; 0xe5
 8001d72:	6020      	str	r0, [r4, #0]
 8001d74:	6820      	ldr	r0, [r4, #0]
 8001d76:	e9cd 7302 	strd	r7, r3, [sp, #8]
 8001d7a:	f003 ff89 	bl	8005c90 <__aeabi_f2d>
 8001d7e:	a306      	add	r3, pc, #24	; (adr r3, 8001d98 <test_divsf3+0xf0>)
 8001d80:	e9d3 2300 	ldrd	r2, r3, [r3]
 8001d84:	e9cd 0100 	strd	r0, r1, [sp]
 8001d88:	a105      	add	r1, pc, #20	; (adr r1, 8001da0 <test_divsf3+0xf8>)
 8001d8a:	e9d1 0100 	ldrd	r0, r1, [r1]
 8001d8e:	f002 fd5f 	bl	8004850 <UnityAssertDoublesWithin>
/Users/Luppy/stm32bluepill-unittest/src/../lib/nano-float/test/test.c:230
}
 8001d92:	b005      	add	sp, #20
 8001d94:	e8bd 8ff0 	ldmia.w	sp!, {r4, r5, r6, r7, r8, r9, sl, fp, pc}
 8001d98:	492d8962 	.word	0x492d8962
 8001d9c:	402047fd 	.word	0x402047fd
 8001da0:	22763b8c 	.word	0x22763b8c
 8001da4:	3ee11274 	.word	0x3ee11274
 8001da8:	492d8962 	.word	0x492d8962
 8001dac:	c02047fd 	.word	0xc02047fd
 8001db0:	22763b8c 	.word	0x22763b8c
 8001db4:	bee11274 	.word	0xbee11274
 8001db8:	20000020 	.word	0x20000020
 8001dbc:	20000030 	.word	0x20000030
 8001dc0:	20000008 	.word	0x20000008
 8001dc4:	4509d327 	.word	0x4509d327
 8001dc8:	438771be 	.word	0x438771be
 8001dcc:	c509d327 	.word	0xc509d327
 8001dd0:	c38771be 	.word	0xc38771be
 8001dd4:	00000000 	.word	0x00000000

08001dd8 <test_sqrt>:
test_sqrt():
/Users/Luppy/stm32bluepill-unittest/src/../lib/nano-float/test/test.c:232
void test_sqrt(void) {
 8001dd8:	b57f      	push	{r0, r1, r2, r3, r4, r5, r6, lr}
/Users/Luppy/stm32bluepill-unittest/src/../lib/nano-float/test/test.c:233
x = 100;       r = sqrt(x);     TEST_ASSERT_EQUAL_DOUBLE( 10.000000   , r );
 8001dda:	2200      	movs	r2, #0
 8001ddc:	4d2c      	ldr	r5, [pc, #176]	; (8001e90 <test_sqrt+0xb8>)
 8001dde:	4b2d      	ldr	r3, [pc, #180]	; (8001e94 <test_sqrt+0xbc>)
 8001de0:	4c2d      	ldr	r4, [pc, #180]	; (8001e98 <test_sqrt+0xc0>)
 8001de2:	e9c5 2300 	strd	r2, r3, [r5]
 8001de6:	e9d5 0100 	ldrd	r0, r1, [r5]
 8001dea:	f002 ff31 	bl	8004c50 <sqrt>
 8001dee:	2600      	movs	r6, #0
 8001df0:	e9c4 0100 	strd	r0, r1, [r4]
 8001df4:	21e9      	movs	r1, #233	; 0xe9
 8001df6:	e9d4 2300 	ldrd	r2, r3, [r4]
 8001dfa:	e9cd 6102 	strd	r6, r1, [sp, #8]
 8001dfe:	a11e      	add	r1, pc, #120	; (adr r1, 8001e78 <test_sqrt+0xa0>)
 8001e00:	e9d1 0100 	ldrd	r0, r1, [r1]
 8001e04:	e9cd 2300 	strd	r2, r3, [sp]
 8001e08:	2200      	movs	r2, #0
 8001e0a:	4b24      	ldr	r3, [pc, #144]	; (8001e9c <test_sqrt+0xc4>)
 8001e0c:	f002 fd20 	bl	8004850 <UnityAssertDoublesWithin>
/Users/Luppy/stm32bluepill-unittest/src/../lib/nano-float/test/test.c:234
x = 2;         r = sqrt(x);     TEST_ASSERT_EQUAL_DOUBLE( 1.414214    , r );
 8001e10:	2200      	movs	r2, #0
 8001e12:	f04f 4380 	mov.w	r3, #1073741824	; 0x40000000
 8001e16:	e9c5 2300 	strd	r2, r3, [r5]
 8001e1a:	e9d5 0100 	ldrd	r0, r1, [r5]
 8001e1e:	f002 ff17 	bl	8004c50 <sqrt>
 8001e22:	e9c4 0100 	strd	r0, r1, [r4]
 8001e26:	21ea      	movs	r1, #234	; 0xea
 8001e28:	e9d4 2300 	ldrd	r2, r3, [r4]
 8001e2c:	e9cd 6102 	strd	r6, r1, [sp, #8]
 8001e30:	a113      	add	r1, pc, #76	; (adr r1, 8001e80 <test_sqrt+0xa8>)
 8001e32:	e9d1 0100 	ldrd	r0, r1, [r1]
 8001e36:	e9cd 2300 	strd	r2, r3, [sp]
 8001e3a:	a313      	add	r3, pc, #76	; (adr r3, 8001e88 <test_sqrt+0xb0>)
 8001e3c:	e9d3 2300 	ldrd	r2, r3, [r3]
 8001e40:	f002 fd06 	bl	8004850 <UnityAssertDoublesWithin>
/Users/Luppy/stm32bluepill-unittest/src/../lib/nano-float/test/test.c:235
x = -0;        r = sqrt(x);     TEST_ASSERT_EQUAL_DOUBLE( -0.000000   , r );
 8001e44:	2200      	movs	r2, #0
 8001e46:	2300      	movs	r3, #0
 8001e48:	e9c5 2300 	strd	r2, r3, [r5]
 8001e4c:	e9d5 0100 	ldrd	r0, r1, [r5]
 8001e50:	f002 fefe 	bl	8004c50 <sqrt>
 8001e54:	e9c4 0100 	strd	r0, r1, [r4]
 8001e58:	21eb      	movs	r1, #235	; 0xeb
 8001e5a:	e9d4 2300 	ldrd	r2, r3, [r4]
 8001e5e:	e9cd 2300 	strd	r2, r3, [sp]
 8001e62:	2200      	movs	r2, #0
 8001e64:	f04f 4300 	mov.w	r3, #2147483648	; 0x80000000
 8001e68:	e9cd 6102 	strd	r6, r1, [sp, #8]
 8001e6c:	4610      	mov	r0, r2
 8001e6e:	4619      	mov	r1, r3
 8001e70:	f002 fcee 	bl	8004850 <UnityAssertDoublesWithin>
/Users/Luppy/stm32bluepill-unittest/src/../lib/nano-float/test/test.c:237
}
 8001e74:	b004      	add	sp, #16
 8001e76:	bd70      	pop	{r4, r5, r6, pc}
 8001e78:	88e368f0 	.word	0x88e368f0
 8001e7c:	3ee4f8b5 	.word	0x3ee4f8b5
 8001e80:	bcb6c115 	.word	0xbcb6c115
 8001e84:	3eb7ba00 	.word	0x3eb7ba00
 8001e88:	dbf8b9bb 	.word	0xdbf8b9bb
 8001e8c:	3ff6a09e 	.word	0x3ff6a09e
 8001e90:	20000018 	.word	0x20000018
 8001e94:	40590000 	.word	0x40590000
 8001e98:	20000000 	.word	0x20000000
 8001e9c:	40240000 	.word	0x40240000

08001ea0 <test_log>:
test_log():
/Users/Luppy/stm32bluepill-unittest/src/../lib/nano-float/test/test.c:239
void test_log(void) {
 8001ea0:	b57f      	push	{r0, r1, r2, r3, r4, r5, r6, lr}
/Users/Luppy/stm32bluepill-unittest/src/../lib/nano-float/test/test.c:240
x = 1;         r = log(x);      TEST_ASSERT_EQUAL_DOUBLE( 0.000000    , r );
 8001ea2:	2200      	movs	r2, #0
 8001ea4:	4d2e      	ldr	r5, [pc, #184]	; (8001f60 <test_log+0xc0>)
 8001ea6:	4b2f      	ldr	r3, [pc, #188]	; (8001f64 <test_log+0xc4>)
 8001ea8:	4c2f      	ldr	r4, [pc, #188]	; (8001f68 <test_log+0xc8>)
 8001eaa:	e9c5 2300 	strd	r2, r3, [r5]
 8001eae:	e9d5 0100 	ldrd	r0, r1, [r5]
 8001eb2:	f002 fedb 	bl	8004c6c <log>
 8001eb6:	e9c4 0100 	strd	r0, r1, [r4]
 8001eba:	2600      	movs	r6, #0
 8001ebc:	e9d4 2300 	ldrd	r2, r3, [r4]
 8001ec0:	21f0      	movs	r1, #240	; 0xf0
 8001ec2:	e9cd 2300 	strd	r2, r3, [sp]
 8001ec6:	2200      	movs	r2, #0
 8001ec8:	2300      	movs	r3, #0
 8001eca:	e9cd 6102 	strd	r6, r1, [sp, #8]
 8001ece:	4610      	mov	r0, r2
 8001ed0:	4619      	mov	r1, r3
 8001ed2:	f002 fcbd 	bl	8004850 <UnityAssertDoublesWithin>
/Users/Luppy/stm32bluepill-unittest/src/../lib/nano-float/test/test.c:241
x = 2;         r = log(x);      TEST_ASSERT_EQUAL_DOUBLE( _M_LN2      , r );
 8001ed6:	2200      	movs	r2, #0
 8001ed8:	f04f 4380 	mov.w	r3, #1073741824	; 0x40000000
 8001edc:	e9c5 2300 	strd	r2, r3, [r5]
 8001ee0:	e9d5 0100 	ldrd	r0, r1, [r5]
 8001ee4:	f002 fec2 	bl	8004c6c <log>
 8001ee8:	e9c4 0100 	strd	r0, r1, [r4]
 8001eec:	21f1      	movs	r1, #241	; 0xf1
 8001eee:	e9d4 2300 	ldrd	r2, r3, [r4]
 8001ef2:	e9cd 6102 	strd	r6, r1, [sp, #8]
 8001ef6:	a112      	add	r1, pc, #72	; (adr r1, 8001f40 <test_log+0xa0>)
 8001ef8:	e9d1 0100 	ldrd	r0, r1, [r1]
 8001efc:	e9cd 2300 	strd	r2, r3, [sp]
 8001f00:	a311      	add	r3, pc, #68	; (adr r3, 8001f48 <test_log+0xa8>)
 8001f02:	e9d3 2300 	ldrd	r2, r3, [r3]
 8001f06:	f002 fca3 	bl	8004850 <UnityAssertDoublesWithin>
/Users/Luppy/stm32bluepill-unittest/src/../lib/nano-float/test/test.c:242
x = 10;        r = log(x);      TEST_ASSERT_EQUAL_DOUBLE( M_LN10      , r );
 8001f0a:	2200      	movs	r2, #0
 8001f0c:	4b17      	ldr	r3, [pc, #92]	; (8001f6c <test_log+0xcc>)
 8001f0e:	e9c5 2300 	strd	r2, r3, [r5]
 8001f12:	e9d5 0100 	ldrd	r0, r1, [r5]
 8001f16:	f002 fea9 	bl	8004c6c <log>
 8001f1a:	e9c4 0100 	strd	r0, r1, [r4]
 8001f1e:	21f2      	movs	r1, #242	; 0xf2
 8001f20:	e9d4 2300 	ldrd	r2, r3, [r4]
 8001f24:	e9cd 6102 	strd	r6, r1, [sp, #8]
 8001f28:	a109      	add	r1, pc, #36	; (adr r1, 8001f50 <test_log+0xb0>)
 8001f2a:	e9d1 0100 	ldrd	r0, r1, [r1]
 8001f2e:	e9cd 2300 	strd	r2, r3, [sp]
 8001f32:	a309      	add	r3, pc, #36	; (adr r3, 8001f58 <test_log+0xb8>)
 8001f34:	e9d3 2300 	ldrd	r2, r3, [r3]
 8001f38:	f002 fc8a 	bl	8004850 <UnityAssertDoublesWithin>
/Users/Luppy/stm32bluepill-unittest/src/../lib/nano-float/test/test.c:245
}
 8001f3c:	b004      	add	sp, #16
 8001f3e:	bd70      	pop	{r4, r5, r6, pc}
 8001f40:	c502a54f 	.word	0xc502a54f
 8001f44:	3ea74216 	.word	0x3ea74216
 8001f48:	fefa39ef 	.word	0xfefa39ef
 8001f4c:	3fe62e42 	.word	0x3fe62e42
 8001f50:	8ab65ff0 	.word	0x8ab65ff0
 8001f54:	3ec350c3 	.word	0x3ec350c3
 8001f58:	bbb55516 	.word	0xbbb55516
 8001f5c:	40026bb1 	.word	0x40026bb1
 8001f60:	20000018 	.word	0x20000018
 8001f64:	3ff00000 	.word	0x3ff00000
 8001f68:	20000000 	.word	0x20000000
 8001f6c:	40240000 	.word	0x40240000

08001f70 <test_exp>:
test_exp():
/Users/Luppy/stm32bluepill-unittest/src/../lib/nano-float/test/test.c:247
void test_exp(void) {
 8001f70:	e92d 437f 	stmdb	sp!, {r0, r1, r2, r3, r4, r5, r6, r8, r9, lr}
/Users/Luppy/stm32bluepill-unittest/src/../lib/nano-float/test/test.c:248
x = 1;         r = exp(x);      TEST_ASSERT_EQUAL_DOUBLE( 2.718282    , r );
 8001f74:	f04f 0800 	mov.w	r8, #0
 8001f78:	4d43      	ldr	r5, [pc, #268]	; (8002088 <test_exp+0x118>)
 8001f7a:	f8df 9118 	ldr.w	r9, [pc, #280]	; 8002094 <test_exp+0x124>
 8001f7e:	4c43      	ldr	r4, [pc, #268]	; (800208c <test_exp+0x11c>)
 8001f80:	e9c5 8900 	strd	r8, r9, [r5]
 8001f84:	e9d5 0100 	ldrd	r0, r1, [r5]
 8001f88:	f002 fe7e 	bl	8004c88 <exp>
 8001f8c:	2600      	movs	r6, #0
 8001f8e:	e9c4 0100 	strd	r0, r1, [r4]
 8001f92:	21f8      	movs	r1, #248	; 0xf8
 8001f94:	e9d4 2300 	ldrd	r2, r3, [r4]
 8001f98:	e9cd 6102 	strd	r6, r1, [sp, #8]
 8001f9c:	a12c      	add	r1, pc, #176	; (adr r1, 8002050 <test_exp+0xe0>)
 8001f9e:	e9d1 0100 	ldrd	r0, r1, [r1]
 8001fa2:	e9cd 2300 	strd	r2, r3, [sp]
 8001fa6:	a32c      	add	r3, pc, #176	; (adr r3, 8002058 <test_exp+0xe8>)
 8001fa8:	e9d3 2300 	ldrd	r2, r3, [r3]
 8001fac:	f002 fc50 	bl	8004850 <UnityAssertDoublesWithin>
/Users/Luppy/stm32bluepill-unittest/src/../lib/nano-float/test/test.c:249
x = _M_LN2;    r = exp(x);      TEST_ASSERT_EQUAL_DOUBLE( 2           , r );
 8001fb0:	a32b      	add	r3, pc, #172	; (adr r3, 8002060 <test_exp+0xf0>)
 8001fb2:	e9d3 2300 	ldrd	r2, r3, [r3]
 8001fb6:	e9c5 2300 	strd	r2, r3, [r5]
 8001fba:	e9d5 0100 	ldrd	r0, r1, [r5]
 8001fbe:	f002 fe63 	bl	8004c88 <exp>
 8001fc2:	e9c4 0100 	strd	r0, r1, [r4]
 8001fc6:	21f9      	movs	r1, #249	; 0xf9
 8001fc8:	e9d4 2300 	ldrd	r2, r3, [r4]
 8001fcc:	e9cd 6102 	strd	r6, r1, [sp, #8]
 8001fd0:	a125      	add	r1, pc, #148	; (adr r1, 8002068 <test_exp+0xf8>)
 8001fd2:	e9d1 0100 	ldrd	r0, r1, [r1]
 8001fd6:	e9cd 2300 	strd	r2, r3, [sp]
 8001fda:	2200      	movs	r2, #0
 8001fdc:	f04f 4380 	mov.w	r3, #1073741824	; 0x40000000
 8001fe0:	f002 fc36 	bl	8004850 <UnityAssertDoublesWithin>
/Users/Luppy/stm32bluepill-unittest/src/../lib/nano-float/test/test.c:250
x = M_LN10;    r = exp(x);      TEST_ASSERT_EQUAL_DOUBLE( 10          , r );
 8001fe4:	a322      	add	r3, pc, #136	; (adr r3, 8002070 <test_exp+0x100>)
 8001fe6:	e9d3 2300 	ldrd	r2, r3, [r3]
 8001fea:	e9c5 2300 	strd	r2, r3, [r5]
 8001fee:	e9d5 0100 	ldrd	r0, r1, [r5]
 8001ff2:	f002 fe49 	bl	8004c88 <exp>
 8001ff6:	e9c4 0100 	strd	r0, r1, [r4]
 8001ffa:	21fa      	movs	r1, #250	; 0xfa
 8001ffc:	e9d4 2300 	ldrd	r2, r3, [r4]
 8002000:	e9cd 6102 	strd	r6, r1, [sp, #8]
 8002004:	a11c      	add	r1, pc, #112	; (adr r1, 8002078 <test_exp+0x108>)
 8002006:	e9d1 0100 	ldrd	r0, r1, [r1]
 800200a:	e9cd 2300 	strd	r2, r3, [sp]
 800200e:	2200      	movs	r2, #0
 8002010:	4b1f      	ldr	r3, [pc, #124]	; (8002090 <test_exp+0x120>)
 8002012:	f002 fc1d 	bl	8004850 <UnityAssertDoublesWithin>
/Users/Luppy/stm32bluepill-unittest/src/../lib/nano-float/test/test.c:251
x = -0;        r = exp(x);      TEST_ASSERT_EQUAL_DOUBLE( 1.000000    , r );
 8002016:	2200      	movs	r2, #0
 8002018:	2300      	movs	r3, #0
 800201a:	e9c5 2300 	strd	r2, r3, [r5]
 800201e:	e9d5 0100 	ldrd	r0, r1, [r5]
 8002022:	f002 fe31 	bl	8004c88 <exp>
 8002026:	e9c4 0100 	strd	r0, r1, [r4]
 800202a:	21fb      	movs	r1, #251	; 0xfb
 800202c:	e9d4 2300 	ldrd	r2, r3, [r4]
 8002030:	e9cd 6102 	strd	r6, r1, [sp, #8]
 8002034:	a112      	add	r1, pc, #72	; (adr r1, 8002080 <test_exp+0x110>)
 8002036:	e9d1 0100 	ldrd	r0, r1, [r1]
 800203a:	e9cd 2300 	strd	r2, r3, [sp]
 800203e:	4642      	mov	r2, r8
 8002040:	464b      	mov	r3, r9
 8002042:	f002 fc05 	bl	8004850 <UnityAssertDoublesWithin>
/Users/Luppy/stm32bluepill-unittest/src/../lib/nano-float/test/test.c:253
}
 8002046:	b004      	add	sp, #16
 8002048:	e8bd 8370 	ldmia.w	sp!, {r4, r5, r6, r8, r9, pc}
 800204c:	f3af 8000 	nop.w
 8002050:	55524dac 	.word	0x55524dac
 8002054:	3ec6cd77 	.word	0x3ec6cd77
 8002058:	a21a719b 	.word	0xa21a719b
 800205c:	4005bf0a 	.word	0x4005bf0a
 8002060:	fefa39ef 	.word	0xfefa39ef
 8002064:	3fe62e42 	.word	0x3fe62e42
 8002068:	a0b5ed8d 	.word	0xa0b5ed8d
 800206c:	3ec0c6f7 	.word	0x3ec0c6f7
 8002070:	bbb55516 	.word	0xbbb55516
 8002074:	40026bb1 	.word	0x40026bb1
 8002078:	88e368f0 	.word	0x88e368f0
 800207c:	3ee4f8b5 	.word	0x3ee4f8b5
 8002080:	a0b5ed8d 	.word	0xa0b5ed8d
 8002084:	3eb0c6f7 	.word	0x3eb0c6f7
 8002088:	20000018 	.word	0x20000018
 800208c:	20000000 	.word	0x20000000
 8002090:	40240000 	.word	0x40240000
 8002094:	3ff00000 	.word	0x3ff00000

08002098 <test_log2>:
test_log2():
/Users/Luppy/stm32bluepill-unittest/src/../lib/nano-float/test/test.c:255
void test_log2(void) {
 8002098:	b57f      	push	{r0, r1, r2, r3, r4, r5, r6, lr}
/Users/Luppy/stm32bluepill-unittest/src/../lib/nano-float/test/test.c:256
x = 65536;      r = log2(x);                  TEST_ASSERT_EQUAL_DOUBLE( 16.000000          , r );
 800209a:	2200      	movs	r2, #0
 800209c:	4d3c      	ldr	r5, [pc, #240]	; (8002190 <test_log2+0xf8>)
 800209e:	4b3d      	ldr	r3, [pc, #244]	; (8002194 <test_log2+0xfc>)
 80020a0:	4c3d      	ldr	r4, [pc, #244]	; (8002198 <test_log2+0x100>)
 80020a2:	e9c5 2300 	strd	r2, r3, [r5]
 80020a6:	e9d5 0100 	ldrd	r0, r1, [r5]
 80020aa:	f002 fdfb 	bl	8004ca4 <log2>
 80020ae:	2600      	movs	r6, #0
 80020b0:	e9c4 0100 	strd	r0, r1, [r4]
 80020b4:	f44f 7180 	mov.w	r1, #256	; 0x100
 80020b8:	e9d4 2300 	ldrd	r2, r3, [r4]
 80020bc:	e9cd 6102 	strd	r6, r1, [sp, #8]
 80020c0:	a12b      	add	r1, pc, #172	; (adr r1, 8002170 <test_log2+0xd8>)
 80020c2:	e9d1 0100 	ldrd	r0, r1, [r1]
 80020c6:	e9cd 2300 	strd	r2, r3, [sp]
 80020ca:	2200      	movs	r2, #0
 80020cc:	4b33      	ldr	r3, [pc, #204]	; (800219c <test_log2+0x104>)
 80020ce:	f002 fbbf 	bl	8004850 <UnityAssertDoublesWithin>
/Users/Luppy/stm32bluepill-unittest/src/../lib/nano-float/test/test.c:257
x = 0.125;      r = log2(x);                  TEST_ASSERT_EQUAL_DOUBLE( -3.000000          , r );
 80020d2:	2200      	movs	r2, #0
 80020d4:	f04f 537f 	mov.w	r3, #1069547520	; 0x3fc00000
 80020d8:	e9c5 2300 	strd	r2, r3, [r5]
 80020dc:	e9d5 0100 	ldrd	r0, r1, [r5]
 80020e0:	f002 fde0 	bl	8004ca4 <log2>
 80020e4:	e9c4 0100 	strd	r0, r1, [r4]
 80020e8:	f240 1101 	movw	r1, #257	; 0x101
 80020ec:	e9d4 2300 	ldrd	r2, r3, [r4]
 80020f0:	e9cd 6102 	strd	r6, r1, [sp, #8]
 80020f4:	a120      	add	r1, pc, #128	; (adr r1, 8002178 <test_log2+0xe0>)
 80020f6:	e9d1 0100 	ldrd	r0, r1, [r1]
 80020fa:	e9cd 2300 	strd	r2, r3, [sp]
 80020fe:	2200      	movs	r2, #0
 8002100:	4b27      	ldr	r3, [pc, #156]	; (80021a0 <test_log2+0x108>)
 8002102:	f002 fba5 	bl	8004850 <UnityAssertDoublesWithin>
/Users/Luppy/stm32bluepill-unittest/src/../lib/nano-float/test/test.c:258
x = 527;        r = log2(x);                  TEST_ASSERT_EQUAL_DOUBLE( 9.041659           , r );
 8002106:	2200      	movs	r2, #0
 8002108:	4b26      	ldr	r3, [pc, #152]	; (80021a4 <test_log2+0x10c>)
 800210a:	e9c5 2300 	strd	r2, r3, [r5]
 800210e:	e9d5 0100 	ldrd	r0, r1, [r5]
 8002112:	f002 fdc7 	bl	8004ca4 <log2>
 8002116:	e9c4 0100 	strd	r0, r1, [r4]
 800211a:	f44f 7181 	mov.w	r1, #258	; 0x102
 800211e:	e9d4 2300 	ldrd	r2, r3, [r4]
 8002122:	e9cd 6102 	strd	r6, r1, [sp, #8]
 8002126:	a116      	add	r1, pc, #88	; (adr r1, 8002180 <test_log2+0xe8>)
 8002128:	e9d1 0100 	ldrd	r0, r1, [r1]
 800212c:	e9cd 2300 	strd	r2, r3, [sp]
 8002130:	a315      	add	r3, pc, #84	; (adr r3, 8002188 <test_log2+0xf0>)
 8002132:	e9d3 2300 	ldrd	r2, r3, [r3]
 8002136:	f002 fb8b 	bl	8004850 <UnityAssertDoublesWithin>
/Users/Luppy/stm32bluepill-unittest/src/../lib/nano-float/test/test.c:259
x = 1;          r = log2(x);                  TEST_ASSERT_EQUAL_DOUBLE( 0.000000           , r );
 800213a:	2200      	movs	r2, #0
 800213c:	4b1a      	ldr	r3, [pc, #104]	; (80021a8 <test_log2+0x110>)
 800213e:	e9c5 2300 	strd	r2, r3, [r5]
 8002142:	e9d5 0100 	ldrd	r0, r1, [r5]
 8002146:	f002 fdad 	bl	8004ca4 <log2>
 800214a:	e9c4 0100 	strd	r0, r1, [r4]
 800214e:	f240 1103 	movw	r1, #259	; 0x103
 8002152:	e9d4 2300 	ldrd	r2, r3, [r4]
 8002156:	e9cd 2300 	strd	r2, r3, [sp]
 800215a:	2200      	movs	r2, #0
 800215c:	2300      	movs	r3, #0
 800215e:	e9cd 6102 	strd	r6, r1, [sp, #8]
 8002162:	4610      	mov	r0, r2
 8002164:	4619      	mov	r1, r3
 8002166:	f002 fb73 	bl	8004850 <UnityAssertDoublesWithin>
/Users/Luppy/stm32bluepill-unittest/src/../lib/nano-float/test/test.c:260
}
 800216a:	b004      	add	sp, #16
 800216c:	bd70      	pop	{r4, r5, r6, pc}
 800216e:	bf00      	nop
 8002170:	a0b5ed8d 	.word	0xa0b5ed8d
 8002174:	3ef0c6f7 	.word	0x3ef0c6f7
 8002178:	7110e454 	.word	0x7110e454
 800217c:	bec92a73 	.word	0xbec92a73
 8002180:	268e6c13 	.word	0x268e6c13
 8002184:	3ee2f634 	.word	0x3ee2f634
 8002188:	54152b0a 	.word	0x54152b0a
 800218c:	40221554 	.word	0x40221554
 8002190:	20000018 	.word	0x20000018
 8002194:	40f00000 	.word	0x40f00000
 8002198:	20000000 	.word	0x20000000
 800219c:	40300000 	.word	0x40300000
 80021a0:	c0080000 	.word	0xc0080000
 80021a4:	40807800 	.word	0x40807800
 80021a8:	3ff00000 	.word	0x3ff00000
 80021ac:	00000000 	.word	0x00000000

080021b0 <test_log10>:
test_log10():
/Users/Luppy/stm32bluepill-unittest/src/../lib/nano-float/test/test.c:262
void test_log10(void) {
 80021b0:	b57f      	push	{r0, r1, r2, r3, r4, r5, r6, lr}
/Users/Luppy/stm32bluepill-unittest/src/../lib/nano-float/test/test.c:263
x = 1000;      r = log10(x);    TEST_ASSERT_EQUAL_DOUBLE( 3.000000    , r );
 80021b2:	2200      	movs	r2, #0
 80021b4:	4d2e      	ldr	r5, [pc, #184]	; (8002270 <test_log10+0xc0>)
 80021b6:	4b2f      	ldr	r3, [pc, #188]	; (8002274 <test_log10+0xc4>)
 80021b8:	4c2f      	ldr	r4, [pc, #188]	; (8002278 <test_log10+0xc8>)
 80021ba:	e9c5 2300 	strd	r2, r3, [r5]
 80021be:	e9d5 0100 	ldrd	r0, r1, [r5]
 80021c2:	f002 fd83 	bl	8004ccc <log10>
 80021c6:	2600      	movs	r6, #0
 80021c8:	e9c4 0100 	strd	r0, r1, [r4]
 80021cc:	f240 1107 	movw	r1, #263	; 0x107
 80021d0:	e9d4 2300 	ldrd	r2, r3, [r4]
 80021d4:	e9cd 6102 	strd	r6, r1, [sp, #8]
 80021d8:	a11f      	add	r1, pc, #124	; (adr r1, 8002258 <test_log10+0xa8>)
 80021da:	e9d1 0100 	ldrd	r0, r1, [r1]
 80021de:	e9cd 2300 	strd	r2, r3, [sp]
 80021e2:	2200      	movs	r2, #0
 80021e4:	4b25      	ldr	r3, [pc, #148]	; (800227c <test_log10+0xcc>)
 80021e6:	f002 fb33 	bl	8004850 <UnityAssertDoublesWithin>
/Users/Luppy/stm32bluepill-unittest/src/../lib/nano-float/test/test.c:264
x = 0.001;     r = log10(x);    TEST_ASSERT_EQUAL_DOUBLE( -3.000000   , r );
 80021ea:	a31d      	add	r3, pc, #116	; (adr r3, 8002260 <test_log10+0xb0>)
 80021ec:	e9d3 2300 	ldrd	r2, r3, [r3]
 80021f0:	e9c5 2300 	strd	r2, r3, [r5]
 80021f4:	e9d5 0100 	ldrd	r0, r1, [r5]
 80021f8:	f002 fd68 	bl	8004ccc <log10>
 80021fc:	e9c4 0100 	strd	r0, r1, [r4]
 8002200:	f44f 7184 	mov.w	r1, #264	; 0x108
 8002204:	e9d4 2300 	ldrd	r2, r3, [r4]
 8002208:	e9cd 6102 	strd	r6, r1, [sp, #8]
 800220c:	a116      	add	r1, pc, #88	; (adr r1, 8002268 <test_log10+0xb8>)
 800220e:	e9d1 0100 	ldrd	r0, r1, [r1]
 8002212:	e9cd 2300 	strd	r2, r3, [sp]
 8002216:	2200      	movs	r2, #0
 8002218:	4b19      	ldr	r3, [pc, #100]	; (8002280 <test_log10+0xd0>)
 800221a:	f002 fb19 	bl	8004850 <UnityAssertDoublesWithin>
/Users/Luppy/stm32bluepill-unittest/src/../lib/nano-float/test/test.c:265
x = 1;         r = log10(x);    TEST_ASSERT_EQUAL_DOUBLE( 0.000000    , r );
 800221e:	2200      	movs	r2, #0
 8002220:	4b18      	ldr	r3, [pc, #96]	; (8002284 <test_log10+0xd4>)
 8002222:	e9c5 2300 	strd	r2, r3, [r5]
 8002226:	e9d5 0100 	ldrd	r0, r1, [r5]
 800222a:	f002 fd4f 	bl	8004ccc <log10>
 800222e:	e9c4 0100 	strd	r0, r1, [r4]
 8002232:	f240 1109 	movw	r1, #265	; 0x109
 8002236:	e9d4 2300 	ldrd	r2, r3, [r4]
 800223a:	e9cd 2300 	strd	r2, r3, [sp]
 800223e:	2200      	movs	r2, #0
 8002240:	2300      	movs	r3, #0
 8002242:	e9cd 6102 	strd	r6, r1, [sp, #8]
 8002246:	4610      	mov	r0, r2
 8002248:	4619      	mov	r1, r3
 800224a:	f002 fb01 	bl	8004850 <UnityAssertDoublesWithin>
/Users/Luppy/stm32bluepill-unittest/src/../lib/nano-float/test/test.c:268
}
 800224e:	b004      	add	sp, #16
 8002250:	bd70      	pop	{r4, r5, r6, pc}
 8002252:	bf00      	nop
 8002254:	f3af 8000 	nop.w
 8002258:	7110e454 	.word	0x7110e454
 800225c:	3ec92a73 	.word	0x3ec92a73
 8002260:	d2f1a9fc 	.word	0xd2f1a9fc
 8002264:	3f50624d 	.word	0x3f50624d
 8002268:	7110e454 	.word	0x7110e454
 800226c:	bec92a73 	.word	0xbec92a73
 8002270:	20000018 	.word	0x20000018
 8002274:	408f4000 	.word	0x408f4000
 8002278:	20000000 	.word	0x20000000
 800227c:	40080000 	.word	0x40080000
 8002280:	c0080000 	.word	0xc0080000
 8002284:	3ff00000 	.word	0x3ff00000

08002288 <test_pow>:
test_pow():
/Users/Luppy/stm32bluepill-unittest/src/../lib/nano-float/test/test.c:270
void test_pow(void) {
 8002288:	e92d 43f0 	stmdb	sp!, {r4, r5, r6, r7, r8, r9, lr}
/Users/Luppy/stm32bluepill-unittest/src/../lib/nano-float/test/test.c:271
x = 2;         y = 10;   r = pow(x, y);      TEST_ASSERT_EQUAL_DOUBLE( 1024.000000 , r );
 800228c:	2200      	movs	r2, #0
 800228e:	f04f 0800 	mov.w	r8, #0
 8002292:	f04f 4980 	mov.w	r9, #1073741824	; 0x40000000
 8002296:	4e3a      	ldr	r6, [pc, #232]	; (8002380 <test_pow+0xf8>)
 8002298:	4d3a      	ldr	r5, [pc, #232]	; (8002384 <test_pow+0xfc>)
 800229a:	4b3b      	ldr	r3, [pc, #236]	; (8002388 <test_pow+0x100>)
 800229c:	e9c6 8900 	strd	r8, r9, [r6]
 80022a0:	e9c5 2300 	strd	r2, r3, [r5]
/Users/Luppy/stm32bluepill-unittest/src/../lib/nano-float/test/test.c:270
void test_pow(void) {
 80022a4:	b085      	sub	sp, #20
/Users/Luppy/stm32bluepill-unittest/src/../lib/nano-float/test/test.c:271
x = 2;         y = 10;   r = pow(x, y);      TEST_ASSERT_EQUAL_DOUBLE( 1024.000000 , r );
 80022a6:	e9d6 0100 	ldrd	r0, r1, [r6]
 80022aa:	e9d5 2300 	ldrd	r2, r3, [r5]
 80022ae:	f002 fd21 	bl	8004cf4 <pow>
 80022b2:	4c36      	ldr	r4, [pc, #216]	; (800238c <test_pow+0x104>)
 80022b4:	2700      	movs	r7, #0
 80022b6:	e9c4 0100 	strd	r0, r1, [r4]
 80022ba:	f240 110f 	movw	r1, #271	; 0x10f
 80022be:	e9d4 2300 	ldrd	r2, r3, [r4]
 80022c2:	e9cd 7102 	strd	r7, r1, [sp, #8]
 80022c6:	a126      	add	r1, pc, #152	; (adr r1, 8002360 <test_pow+0xd8>)
 80022c8:	e9d1 0100 	ldrd	r0, r1, [r1]
 80022cc:	e9cd 2300 	strd	r2, r3, [sp]
 80022d0:	2200      	movs	r2, #0
 80022d2:	4b2f      	ldr	r3, [pc, #188]	; (8002390 <test_pow+0x108>)
 80022d4:	f002 fabc 	bl	8004850 <UnityAssertDoublesWithin>
/Users/Luppy/stm32bluepill-unittest/src/../lib/nano-float/test/test.c:272
x = 2;         y = 0.5;  r = pow(x, y);      TEST_ASSERT_EQUAL_DOUBLE( 1.414214    , r );
 80022d8:	2200      	movs	r2, #0
 80022da:	4b2e      	ldr	r3, [pc, #184]	; (8002394 <test_pow+0x10c>)
 80022dc:	e9c6 8900 	strd	r8, r9, [r6]
 80022e0:	e9c5 2300 	strd	r2, r3, [r5]
 80022e4:	e9d6 0100 	ldrd	r0, r1, [r6]
 80022e8:	e9d5 2300 	ldrd	r2, r3, [r5]
 80022ec:	f002 fd02 	bl	8004cf4 <pow>
 80022f0:	e9c4 0100 	strd	r0, r1, [r4]
 80022f4:	f44f 7188 	mov.w	r1, #272	; 0x110
 80022f8:	e9d4 2300 	ldrd	r2, r3, [r4]
 80022fc:	e9cd 7102 	strd	r7, r1, [sp, #8]
 8002300:	a119      	add	r1, pc, #100	; (adr r1, 8002368 <test_pow+0xe0>)
 8002302:	e9d1 0100 	ldrd	r0, r1, [r1]
 8002306:	e9cd 2300 	strd	r2, r3, [sp]
 800230a:	a319      	add	r3, pc, #100	; (adr r3, 8002370 <test_pow+0xe8>)
 800230c:	e9d3 2300 	ldrd	r2, r3, [r3]
 8002310:	f002 fa9e 	bl	8004850 <UnityAssertDoublesWithin>
/Users/Luppy/stm32bluepill-unittest/src/../lib/nano-float/test/test.c:273
x = -2;        y = -3;   r = pow(x, y);      TEST_ASSERT_EQUAL_DOUBLE( -0.125000   , r );
 8002314:	2200      	movs	r2, #0
 8002316:	f04f 4340 	mov.w	r3, #3221225472	; 0xc0000000
 800231a:	e9c6 2300 	strd	r2, r3, [r6]
 800231e:	2200      	movs	r2, #0
 8002320:	4b1d      	ldr	r3, [pc, #116]	; (8002398 <test_pow+0x110>)
 8002322:	e9c5 2300 	strd	r2, r3, [r5]
 8002326:	e9d6 0100 	ldrd	r0, r1, [r6]
 800232a:	e9d5 2300 	ldrd	r2, r3, [r5]
 800232e:	f002 fce1 	bl	8004cf4 <pow>
 8002332:	e9c4 0100 	strd	r0, r1, [r4]
 8002336:	f240 1111 	movw	r1, #273	; 0x111
 800233a:	e9d4 2300 	ldrd	r2, r3, [r4]
 800233e:	e9cd 7102 	strd	r7, r1, [sp, #8]
 8002342:	a10d      	add	r1, pc, #52	; (adr r1, 8002378 <test_pow+0xf0>)
 8002344:	e9d1 0100 	ldrd	r0, r1, [r1]
 8002348:	e9cd 2300 	strd	r2, r3, [sp]
 800234c:	2200      	movs	r2, #0
 800234e:	4b13      	ldr	r3, [pc, #76]	; (800239c <test_pow+0x114>)
 8002350:	f002 fa7e 	bl	8004850 <UnityAssertDoublesWithin>
/Users/Luppy/stm32bluepill-unittest/src/../lib/nano-float/test/test.c:279
}
 8002354:	b005      	add	sp, #20
 8002356:	e8bd 83f0 	ldmia.w	sp!, {r4, r5, r6, r7, r8, r9, pc}
 800235a:	bf00      	nop
 800235c:	f3af 8000 	nop.w
 8002360:	a0b5ed8d 	.word	0xa0b5ed8d
 8002364:	3f50c6f7 	.word	0x3f50c6f7
 8002368:	bcb6c115 	.word	0xbcb6c115
 800236c:	3eb7ba00 	.word	0x3eb7ba00
 8002370:	dbf8b9bb 	.word	0xdbf8b9bb
 8002374:	3ff6a09e 	.word	0x3ff6a09e
 8002378:	a0b5ed8d 	.word	0xa0b5ed8d
 800237c:	be80c6f7 	.word	0xbe80c6f7
 8002380:	20000018 	.word	0x20000018
 8002384:	20000028 	.word	0x20000028
 8002388:	40240000 	.word	0x40240000
 800238c:	20000000 	.word	0x20000000
 8002390:	40900000 	.word	0x40900000
 8002394:	3fe00000 	.word	0x3fe00000
 8002398:	c0080000 	.word	0xc0080000
 800239c:	bfc00000 	.word	0xbfc00000

080023a0 <test_ldexp>:
test_ldexp():
/Users/Luppy/stm32bluepill-unittest/src/../lib/nano-float/test/test.c:282
x = 7;         y = -4;   r = ldexp(x, y);    TEST_ASSERT_EQUAL_DOUBLE( 0.437500    , r );
 80023a0:	2200      	movs	r2, #0
/Users/Luppy/stm32bluepill-unittest/src/../lib/nano-float/test/test.c:281
void test_ldexp(void) {
 80023a2:	e92d 43f0 	stmdb	sp!, {r4, r5, r6, r7, r8, r9, lr}
/Users/Luppy/stm32bluepill-unittest/src/../lib/nano-float/test/test.c:282
x = 7;         y = -4;   r = ldexp(x, y);    TEST_ASSERT_EQUAL_DOUBLE( 0.437500    , r );
 80023a6:	4b2a      	ldr	r3, [pc, #168]	; (8002450 <test_ldexp+0xb0>)
 80023a8:	4e2a      	ldr	r6, [pc, #168]	; (8002454 <test_ldexp+0xb4>)
 80023aa:	4d2b      	ldr	r5, [pc, #172]	; (8002458 <test_ldexp+0xb8>)
 80023ac:	e9c6 2300 	strd	r2, r3, [r6]
 80023b0:	2200      	movs	r2, #0
 80023b2:	4b2a      	ldr	r3, [pc, #168]	; (800245c <test_ldexp+0xbc>)
/Users/Luppy/stm32bluepill-unittest/src/../lib/nano-float/test/test.c:281
void test_ldexp(void) {
 80023b4:	b085      	sub	sp, #20
/Users/Luppy/stm32bluepill-unittest/src/../lib/nano-float/test/test.c:282
x = 7;         y = -4;   r = ldexp(x, y);    TEST_ASSERT_EQUAL_DOUBLE( 0.437500    , r );
 80023b6:	e9c5 2300 	strd	r2, r3, [r5]
 80023ba:	e9d6 8900 	ldrd	r8, r9, [r6]
 80023be:	e9d5 0100 	ldrd	r0, r1, [r5]
 80023c2:	f003 ff6d 	bl	80062a0 <__aeabi_d2iz>
 80023c6:	4649      	mov	r1, r9
 80023c8:	4602      	mov	r2, r0
 80023ca:	4640      	mov	r0, r8
 80023cc:	f002 fcd6 	bl	8004d7c <ldexp>
 80023d0:	4c23      	ldr	r4, [pc, #140]	; (8002460 <test_ldexp+0xc0>)
 80023d2:	2700      	movs	r7, #0
 80023d4:	e9c4 0100 	strd	r0, r1, [r4]
 80023d8:	f44f 718d 	mov.w	r1, #282	; 0x11a
 80023dc:	e9d4 2300 	ldrd	r2, r3, [r4]
 80023e0:	e9cd 7102 	strd	r7, r1, [sp, #8]
 80023e4:	a118      	add	r1, pc, #96	; (adr r1, 8002448 <test_ldexp+0xa8>)
 80023e6:	e9d1 0100 	ldrd	r0, r1, [r1]
 80023ea:	e9cd 2300 	strd	r2, r3, [sp]
 80023ee:	2200      	movs	r2, #0
 80023f0:	4b1c      	ldr	r3, [pc, #112]	; (8002464 <test_ldexp+0xc4>)
 80023f2:	f002 fa2d 	bl	8004850 <UnityAssertDoublesWithin>
/Users/Luppy/stm32bluepill-unittest/src/../lib/nano-float/test/test.c:283
x = -0;        y = 10;   r = ldexp(x, y);    TEST_ASSERT_EQUAL_DOUBLE( -0.000000   , r );
 80023f6:	2200      	movs	r2, #0
 80023f8:	2300      	movs	r3, #0
 80023fa:	e9c6 2300 	strd	r2, r3, [r6]
 80023fe:	2200      	movs	r2, #0
 8002400:	4b19      	ldr	r3, [pc, #100]	; (8002468 <test_ldexp+0xc8>)
 8002402:	e9c5 2300 	strd	r2, r3, [r5]
 8002406:	e9d6 8900 	ldrd	r8, r9, [r6]
 800240a:	e9d5 0100 	ldrd	r0, r1, [r5]
 800240e:	f003 ff47 	bl	80062a0 <__aeabi_d2iz>
 8002412:	4649      	mov	r1, r9
 8002414:	4602      	mov	r2, r0
 8002416:	4640      	mov	r0, r8
 8002418:	f002 fcb0 	bl	8004d7c <ldexp>
 800241c:	e9c4 0100 	strd	r0, r1, [r4]
 8002420:	f240 111b 	movw	r1, #283	; 0x11b
 8002424:	e9d4 2300 	ldrd	r2, r3, [r4]
 8002428:	e9cd 2300 	strd	r2, r3, [sp]
 800242c:	2200      	movs	r2, #0
 800242e:	f04f 4300 	mov.w	r3, #2147483648	; 0x80000000
 8002432:	e9cd 7102 	strd	r7, r1, [sp, #8]
 8002436:	4610      	mov	r0, r2
 8002438:	4619      	mov	r1, r3
 800243a:	f002 fa09 	bl	8004850 <UnityAssertDoublesWithin>
/Users/Luppy/stm32bluepill-unittest/src/../lib/nano-float/test/test.c:286
}
 800243e:	b005      	add	sp, #20
 8002440:	e8bd 83f0 	ldmia.w	sp!, {r4, r5, r6, r7, r8, r9, pc}
 8002444:	f3af 8000 	nop.w
 8002448:	593e5fb7 	.word	0x593e5fb7
 800244c:	3e9d5c31 	.word	0x3e9d5c31
 8002450:	401c0000 	.word	0x401c0000
 8002454:	20000018 	.word	0x20000018
 8002458:	20000028 	.word	0x20000028
 800245c:	c0100000 	.word	0xc0100000
 8002460:	20000000 	.word	0x20000000
 8002464:	3fdc0000 	.word	0x3fdc0000
 8002468:	40240000 	.word	0x40240000
 800246c:	00000000 	.word	0x00000000

08002470 <test_sin>:
test_sin():
/Users/Luppy/stm32bluepill-unittest/src/../lib/nano-float/test/test.c:288
void test_sin(void) {
 8002470:	e92d 437f 	stmdb	sp!, {r0, r1, r2, r3, r4, r5, r6, r8, r9, lr}
/Users/Luppy/stm32bluepill-unittest/src/../lib/nano-float/test/test.c:289
x = pi/6;      r = sin(x);      TEST_ASSERT_EQUAL_DOUBLE( 0.500000    , r );
 8002474:	a342      	add	r3, pc, #264	; (adr r3, 8002580 <test_sin+0x110>)
 8002476:	e9d3 2300 	ldrd	r2, r3, [r3]
 800247a:	4d4f      	ldr	r5, [pc, #316]	; (80025b8 <test_sin+0x148>)
 800247c:	4c4f      	ldr	r4, [pc, #316]	; (80025bc <test_sin+0x14c>)
 800247e:	e9c5 2300 	strd	r2, r3, [r5]
 8002482:	e9d5 0100 	ldrd	r0, r1, [r5]
 8002486:	f002 fc99 	bl	8004dbc <sin>
 800248a:	2600      	movs	r6, #0
 800248c:	e9c4 0100 	strd	r0, r1, [r4]
 8002490:	f240 1121 	movw	r1, #289	; 0x121
 8002494:	e9d4 2300 	ldrd	r2, r3, [r4]
 8002498:	e9cd 6102 	strd	r6, r1, [sp, #8]
 800249c:	a13a      	add	r1, pc, #232	; (adr r1, 8002588 <test_sin+0x118>)
 800249e:	e9d1 0100 	ldrd	r0, r1, [r1]
 80024a2:	e9cd 2300 	strd	r2, r3, [sp]
 80024a6:	2200      	movs	r2, #0
 80024a8:	4b45      	ldr	r3, [pc, #276]	; (80025c0 <test_sin+0x150>)
 80024aa:	f002 f9d1 	bl	8004850 <UnityAssertDoublesWithin>
/Users/Luppy/stm32bluepill-unittest/src/../lib/nano-float/test/test.c:290
x = pi/2;      r = sin(x);      TEST_ASSERT_EQUAL_DOUBLE( 1.000000    , r );
 80024ae:	a338      	add	r3, pc, #224	; (adr r3, 8002590 <test_sin+0x120>)
 80024b0:	e9d3 2300 	ldrd	r2, r3, [r3]
 80024b4:	e9c5 2300 	strd	r2, r3, [r5]
 80024b8:	e9d5 0100 	ldrd	r0, r1, [r5]
 80024bc:	f002 fc7e 	bl	8004dbc <sin>
 80024c0:	e9c4 0100 	strd	r0, r1, [r4]
 80024c4:	f44f 7191 	mov.w	r1, #290	; 0x122
 80024c8:	e9d4 2300 	ldrd	r2, r3, [r4]
 80024cc:	e9cd 6102 	strd	r6, r1, [sp, #8]
 80024d0:	a131      	add	r1, pc, #196	; (adr r1, 8002598 <test_sin+0x128>)
 80024d2:	e9d1 0100 	ldrd	r0, r1, [r1]
 80024d6:	e9cd 2300 	strd	r2, r3, [sp]
 80024da:	2200      	movs	r2, #0
 80024dc:	4b39      	ldr	r3, [pc, #228]	; (80025c4 <test_sin+0x154>)
 80024de:	f002 f9b7 	bl	8004850 <UnityAssertDoublesWithin>
/Users/Luppy/stm32bluepill-unittest/src/../lib/nano-float/test/test.c:291
x = -3*pi/4;   r = sin(x);      TEST_ASSERT_EQUAL_DOUBLE( -0.707107   , r );
 80024e2:	a32f      	add	r3, pc, #188	; (adr r3, 80025a0 <test_sin+0x130>)
 80024e4:	e9d3 2300 	ldrd	r2, r3, [r3]
 80024e8:	e9c5 2300 	strd	r2, r3, [r5]
 80024ec:	e9d5 0100 	ldrd	r0, r1, [r5]
 80024f0:	f002 fc64 	bl	8004dbc <sin>
 80024f4:	e9c4 0100 	strd	r0, r1, [r4]
 80024f8:	f240 1123 	movw	r1, #291	; 0x123
 80024fc:	e9d4 2300 	ldrd	r2, r3, [r4]
/Users/Luppy/stm32bluepill-unittest/src/../lib/nano-float/test/test.c:292
x = +0;        r = sin(x);      TEST_ASSERT_EQUAL_DOUBLE( 0.000000    , r );
 8002500:	f04f 0800 	mov.w	r8, #0
 8002504:	f04f 0900 	mov.w	r9, #0
/Users/Luppy/stm32bluepill-unittest/src/../lib/nano-float/test/test.c:291
x = -3*pi/4;   r = sin(x);      TEST_ASSERT_EQUAL_DOUBLE( -0.707107   , r );
 8002508:	e9cd 6102 	strd	r6, r1, [sp, #8]
 800250c:	a126      	add	r1, pc, #152	; (adr r1, 80025a8 <test_sin+0x138>)
 800250e:	e9d1 0100 	ldrd	r0, r1, [r1]
 8002512:	e9cd 2300 	strd	r2, r3, [sp]
 8002516:	a326      	add	r3, pc, #152	; (adr r3, 80025b0 <test_sin+0x140>)
 8002518:	e9d3 2300 	ldrd	r2, r3, [r3]
 800251c:	f002 f998 	bl	8004850 <UnityAssertDoublesWithin>
/Users/Luppy/stm32bluepill-unittest/src/../lib/nano-float/test/test.c:292
x = +0;        r = sin(x);      TEST_ASSERT_EQUAL_DOUBLE( 0.000000    , r );
 8002520:	e9c5 8900 	strd	r8, r9, [r5]
 8002524:	e9d5 0100 	ldrd	r0, r1, [r5]
 8002528:	f002 fc48 	bl	8004dbc <sin>
 800252c:	e9c4 0100 	strd	r0, r1, [r4]
 8002530:	f44f 7192 	mov.w	r1, #292	; 0x124
 8002534:	e9d4 2300 	ldrd	r2, r3, [r4]
 8002538:	e9cd 6102 	strd	r6, r1, [sp, #8]
 800253c:	e9cd 2300 	strd	r2, r3, [sp]
 8002540:	4640      	mov	r0, r8
 8002542:	4642      	mov	r2, r8
 8002544:	464b      	mov	r3, r9
 8002546:	4649      	mov	r1, r9
 8002548:	f002 f982 	bl	8004850 <UnityAssertDoublesWithin>
/Users/Luppy/stm32bluepill-unittest/src/../lib/nano-float/test/test.c:293
x = -0;        r = sin(x);      TEST_ASSERT_EQUAL_DOUBLE( -0.000000   , r );
 800254c:	e9c5 8900 	strd	r8, r9, [r5]
 8002550:	e9d5 0100 	ldrd	r0, r1, [r5]
 8002554:	f002 fc32 	bl	8004dbc <sin>
 8002558:	e9c4 0100 	strd	r0, r1, [r4]
 800255c:	f240 1125 	movw	r1, #293	; 0x125
 8002560:	e9d4 2300 	ldrd	r2, r3, [r4]
 8002564:	e9cd 2300 	strd	r2, r3, [sp]
 8002568:	2200      	movs	r2, #0
 800256a:	f04f 4300 	mov.w	r3, #2147483648	; 0x80000000
 800256e:	e9cd 6102 	strd	r6, r1, [sp, #8]
 8002572:	4610      	mov	r0, r2
 8002574:	4619      	mov	r1, r3
 8002576:	f002 f96b 	bl	8004850 <UnityAssertDoublesWithin>
/Users/Luppy/stm32bluepill-unittest/src/../lib/nano-float/test/test.c:295
}
 800257a:	b004      	add	sp, #16
 800257c:	e8bd 8370 	ldmia.w	sp!, {r4, r5, r6, r8, r9, pc}
 8002580:	382d7365 	.word	0x382d7365
 8002584:	3fe0c152 	.word	0x3fe0c152
 8002588:	a0b5ed8d 	.word	0xa0b5ed8d
 800258c:	3ea0c6f7 	.word	0x3ea0c6f7
 8002590:	54442d18 	.word	0x54442d18
 8002594:	3ff921fb 	.word	0x3ff921fb
 8002598:	a0b5ed8d 	.word	0xa0b5ed8d
 800259c:	3eb0c6f7 	.word	0x3eb0c6f7
 80025a0:	7f3321d2 	.word	0x7f3321d2
 80025a4:	c002d97c 	.word	0xc002d97c
 80025a8:	bcb6c115 	.word	0xbcb6c115
 80025ac:	bea7ba00 	.word	0xbea7ba00
 80025b0:	dbf8b9bb 	.word	0xdbf8b9bb
 80025b4:	bfe6a09e 	.word	0xbfe6a09e
 80025b8:	20000018 	.word	0x20000018
 80025bc:	20000000 	.word	0x20000000
 80025c0:	3fe00000 	.word	0x3fe00000
 80025c4:	3ff00000 	.word	0x3ff00000

080025c8 <test_cos>:
test_cos():
/Users/Luppy/stm32bluepill-unittest/src/../lib/nano-float/test/test.c:297
void test_cos(void) {
 80025c8:	e92d 47ff 	stmdb	sp!, {r0, r1, r2, r3, r4, r5, r6, r7, r8, r9, sl, lr}
/Users/Luppy/stm32bluepill-unittest/src/../lib/nano-float/test/test.c:298
x = pi/3;      r = cos(x);      TEST_ASSERT_EQUAL_DOUBLE( 0.500000    , r );
 80025cc:	a344      	add	r3, pc, #272	; (adr r3, 80026e0 <test_cos+0x118>)
 80025ce:	e9d3 2300 	ldrd	r2, r3, [r3]
 80025d2:	4d51      	ldr	r5, [pc, #324]	; (8002718 <test_cos+0x150>)
 80025d4:	4c51      	ldr	r4, [pc, #324]	; (800271c <test_cos+0x154>)
 80025d6:	e9c5 2300 	strd	r2, r3, [r5]
 80025da:	e9d5 0100 	ldrd	r0, r1, [r5]
 80025de:	f002 fbfb 	bl	8004dd8 <cos>
 80025e2:	f04f 0a00 	mov.w	sl, #0
 80025e6:	e9c4 0100 	strd	r0, r1, [r4]
 80025ea:	f44f 7195 	mov.w	r1, #298	; 0x12a
 80025ee:	e9d4 2300 	ldrd	r2, r3, [r4]
 80025f2:	e9cd a102 	strd	sl, r1, [sp, #8]
 80025f6:	a13c      	add	r1, pc, #240	; (adr r1, 80026e8 <test_cos+0x120>)
 80025f8:	e9d1 0100 	ldrd	r0, r1, [r1]
 80025fc:	e9cd 2300 	strd	r2, r3, [sp]
 8002600:	2200      	movs	r2, #0
 8002602:	4b47      	ldr	r3, [pc, #284]	; (8002720 <test_cos+0x158>)
 8002604:	f002 f924 	bl	8004850 <UnityAssertDoublesWithin>
/Users/Luppy/stm32bluepill-unittest/src/../lib/nano-float/test/test.c:299
x = pi/2;      r = cos(x);      TEST_ASSERT_EQUAL_DOUBLE( 0.000000    , r );
 8002608:	a339      	add	r3, pc, #228	; (adr r3, 80026f0 <test_cos+0x128>)
 800260a:	e9d3 2300 	ldrd	r2, r3, [r3]
 800260e:	e9c5 2300 	strd	r2, r3, [r5]
 8002612:	e9d5 0100 	ldrd	r0, r1, [r5]
 8002616:	f002 fbdf 	bl	8004dd8 <cos>
 800261a:	2600      	movs	r6, #0
 800261c:	e9c4 0100 	strd	r0, r1, [r4]
 8002620:	2700      	movs	r7, #0
 8002622:	e9d4 2300 	ldrd	r2, r3, [r4]
 8002626:	f240 112b 	movw	r1, #299	; 0x12b
 800262a:	e9cd 2300 	strd	r2, r3, [sp]
 800262e:	e9cd a102 	strd	sl, r1, [sp, #8]
 8002632:	4632      	mov	r2, r6
 8002634:	463b      	mov	r3, r7
 8002636:	4630      	mov	r0, r6
 8002638:	4639      	mov	r1, r7
 800263a:	f002 f909 	bl	8004850 <UnityAssertDoublesWithin>
/Users/Luppy/stm32bluepill-unittest/src/../lib/nano-float/test/test.c:300
x = -3*pi/4;   r = cos(x);      TEST_ASSERT_EQUAL_DOUBLE( -0.707107   , r );
 800263e:	a32e      	add	r3, pc, #184	; (adr r3, 80026f8 <test_cos+0x130>)
 8002640:	e9d3 2300 	ldrd	r2, r3, [r3]
 8002644:	e9c5 2300 	strd	r2, r3, [r5]
 8002648:	e9d5 0100 	ldrd	r0, r1, [r5]
 800264c:	f002 fbc4 	bl	8004dd8 <cos>
 8002650:	e9c4 0100 	strd	r0, r1, [r4]
 8002654:	f44f 7196 	mov.w	r1, #300	; 0x12c
 8002658:	e9d4 2300 	ldrd	r2, r3, [r4]
 800265c:	e9cd a102 	strd	sl, r1, [sp, #8]
 8002660:	a127      	add	r1, pc, #156	; (adr r1, 8002700 <test_cos+0x138>)
 8002662:	e9d1 0100 	ldrd	r0, r1, [r1]
 8002666:	e9cd 2300 	strd	r2, r3, [sp]
 800266a:	a327      	add	r3, pc, #156	; (adr r3, 8002708 <test_cos+0x140>)
 800266c:	e9d3 2300 	ldrd	r2, r3, [r3]
 8002670:	f002 f8ee 	bl	8004850 <UnityAssertDoublesWithin>
/Users/Luppy/stm32bluepill-unittest/src/../lib/nano-float/test/test.c:301
x = +0;        r = cos(x);      TEST_ASSERT_EQUAL_DOUBLE( 1.000000    , r );
 8002674:	e9c5 6700 	strd	r6, r7, [r5]
 8002678:	e9d5 0100 	ldrd	r0, r1, [r5]
 800267c:	f002 fbac 	bl	8004dd8 <cos>
 8002680:	f04f 0800 	mov.w	r8, #0
 8002684:	e9c4 0100 	strd	r0, r1, [r4]
 8002688:	f240 112d 	movw	r1, #301	; 0x12d
 800268c:	e9d4 2300 	ldrd	r2, r3, [r4]
 8002690:	f8df 9090 	ldr.w	r9, [pc, #144]	; 8002724 <test_cos+0x15c>
 8002694:	e9cd 2300 	strd	r2, r3, [sp]
 8002698:	e9cd a102 	strd	sl, r1, [sp, #8]
 800269c:	a11c      	add	r1, pc, #112	; (adr r1, 8002710 <test_cos+0x148>)
 800269e:	e9d1 0100 	ldrd	r0, r1, [r1]
 80026a2:	4642      	mov	r2, r8
 80026a4:	464b      	mov	r3, r9
 80026a6:	f002 f8d3 	bl	8004850 <UnityAssertDoublesWithin>
/Users/Luppy/stm32bluepill-unittest/src/../lib/nano-float/test/test.c:302
x = -0;        r = cos(x);      TEST_ASSERT_EQUAL_DOUBLE( 1.000000    , r );
 80026aa:	e9c5 6700 	strd	r6, r7, [r5]
 80026ae:	e9d5 0100 	ldrd	r0, r1, [r5]
 80026b2:	f002 fb91 	bl	8004dd8 <cos>
 80026b6:	e9c4 0100 	strd	r0, r1, [r4]
 80026ba:	f44f 7197 	mov.w	r1, #302	; 0x12e
 80026be:	e9d4 2300 	ldrd	r2, r3, [r4]
 80026c2:	e9cd a102 	strd	sl, r1, [sp, #8]
 80026c6:	a112      	add	r1, pc, #72	; (adr r1, 8002710 <test_cos+0x148>)
 80026c8:	e9d1 0100 	ldrd	r0, r1, [r1]
 80026cc:	e9cd 2300 	strd	r2, r3, [sp]
 80026d0:	4642      	mov	r2, r8
 80026d2:	464b      	mov	r3, r9
 80026d4:	f002 f8bc 	bl	8004850 <UnityAssertDoublesWithin>
/Users/Luppy/stm32bluepill-unittest/src/../lib/nano-float/test/test.c:304
}
 80026d8:	b004      	add	sp, #16
 80026da:	e8bd 87f0 	ldmia.w	sp!, {r4, r5, r6, r7, r8, r9, sl, pc}
 80026de:	bf00      	nop
 80026e0:	382d7365 	.word	0x382d7365
 80026e4:	3ff0c152 	.word	0x3ff0c152
 80026e8:	a0b5ed8d 	.word	0xa0b5ed8d
 80026ec:	3ea0c6f7 	.word	0x3ea0c6f7
 80026f0:	54442d18 	.word	0x54442d18
 80026f4:	3ff921fb 	.word	0x3ff921fb
 80026f8:	7f3321d2 	.word	0x7f3321d2
 80026fc:	c002d97c 	.word	0xc002d97c
 8002700:	bcb6c115 	.word	0xbcb6c115
 8002704:	bea7ba00 	.word	0xbea7ba00
 8002708:	dbf8b9bb 	.word	0xdbf8b9bb
 800270c:	bfe6a09e 	.word	0xbfe6a09e
 8002710:	a0b5ed8d 	.word	0xa0b5ed8d
 8002714:	3eb0c6f7 	.word	0x3eb0c6f7
 8002718:	20000018 	.word	0x20000018
 800271c:	20000000 	.word	0x20000000
 8002720:	3fe00000 	.word	0x3fe00000
 8002724:	3ff00000 	.word	0x3ff00000

08002728 <test_tan>:
test_tan():
/Users/Luppy/stm32bluepill-unittest/src/../lib/nano-float/test/test.c:306
void test_tan(void) {
 8002728:	e92d 47ff 	stmdb	sp!, {r0, r1, r2, r3, r4, r5, r6, r7, r8, r9, sl, lr}
/Users/Luppy/stm32bluepill-unittest/src/../lib/nano-float/test/test.c:307
x = 3*pi/4;    r = tan(x);      TEST_ASSERT_EQUAL_DOUBLE( -1.000000   , r );
 800272c:	a344      	add	r3, pc, #272	; (adr r3, 8002840 <test_tan+0x118>)
 800272e:	e9d3 2300 	ldrd	r2, r3, [r3]
 8002732:	a745      	add	r7, pc, #276	; (adr r7, 8002848 <test_tan+0x120>)
 8002734:	e9d7 6700 	ldrd	r6, r7, [r7]
 8002738:	4d4b      	ldr	r5, [pc, #300]	; (8002868 <test_tan+0x140>)
 800273a:	4c4c      	ldr	r4, [pc, #304]	; (800286c <test_tan+0x144>)
 800273c:	e9c5 2300 	strd	r2, r3, [r5]
 8002740:	e9d5 0100 	ldrd	r0, r1, [r5]
 8002744:	f002 fb62 	bl	8004e0c <tan>
 8002748:	f04f 0a00 	mov.w	sl, #0
 800274c:	e9c4 0100 	strd	r0, r1, [r4]
 8002750:	f04f 0800 	mov.w	r8, #0
 8002754:	e9d4 2300 	ldrd	r2, r3, [r4]
 8002758:	f240 1133 	movw	r1, #307	; 0x133
 800275c:	f8df 9114 	ldr.w	r9, [pc, #276]	; 8002874 <test_tan+0x14c>
 8002760:	e9cd 2300 	strd	r2, r3, [sp]
 8002764:	e9cd a102 	strd	sl, r1, [sp, #8]
 8002768:	4642      	mov	r2, r8
 800276a:	464b      	mov	r3, r9
 800276c:	4630      	mov	r0, r6
 800276e:	4639      	mov	r1, r7
 8002770:	f002 f86e 	bl	8004850 <UnityAssertDoublesWithin>
/Users/Luppy/stm32bluepill-unittest/src/../lib/nano-float/test/test.c:308
x = 5*pi/4;    r = tan(x);      TEST_ASSERT_EQUAL_DOUBLE( +1.000000   , r );
 8002774:	a336      	add	r3, pc, #216	; (adr r3, 8002850 <test_tan+0x128>)
 8002776:	e9d3 2300 	ldrd	r2, r3, [r3]
 800277a:	e9c5 2300 	strd	r2, r3, [r5]
 800277e:	e9d5 0100 	ldrd	r0, r1, [r5]
 8002782:	f002 fb43 	bl	8004e0c <tan>
 8002786:	e9c4 0100 	strd	r0, r1, [r4]
 800278a:	f44f 719a 	mov.w	r1, #308	; 0x134
 800278e:	e9d4 2300 	ldrd	r2, r3, [r4]
 8002792:	e9cd a102 	strd	sl, r1, [sp, #8]
 8002796:	a130      	add	r1, pc, #192	; (adr r1, 8002858 <test_tan+0x130>)
 8002798:	e9d1 0100 	ldrd	r0, r1, [r1]
 800279c:	e9cd 2300 	strd	r2, r3, [sp]
 80027a0:	2200      	movs	r2, #0
 80027a2:	4b33      	ldr	r3, [pc, #204]	; (8002870 <test_tan+0x148>)
 80027a4:	f002 f854 	bl	8004850 <UnityAssertDoublesWithin>
/Users/Luppy/stm32bluepill-unittest/src/../lib/nano-float/test/test.c:309
x = 7*pi/4;    r = tan(x);      TEST_ASSERT_EQUAL_DOUBLE( -1.000000   , r );
 80027a8:	a32d      	add	r3, pc, #180	; (adr r3, 8002860 <test_tan+0x138>)
 80027aa:	e9d3 2300 	ldrd	r2, r3, [r3]
 80027ae:	e9c5 2300 	strd	r2, r3, [r5]
 80027b2:	e9d5 0100 	ldrd	r0, r1, [r5]
 80027b6:	f002 fb29 	bl	8004e0c <tan>
 80027ba:	e9c4 0100 	strd	r0, r1, [r4]
 80027be:	f240 1135 	movw	r1, #309	; 0x135
 80027c2:	e9d4 2300 	ldrd	r2, r3, [r4]
 80027c6:	e9cd a102 	strd	sl, r1, [sp, #8]
 80027ca:	4630      	mov	r0, r6
 80027cc:	4639      	mov	r1, r7
/Users/Luppy/stm32bluepill-unittest/src/../lib/nano-float/test/test.c:310
x = +0;        r = tan(x);      TEST_ASSERT_EQUAL_DOUBLE( 0.000000    , r );
 80027ce:	2600      	movs	r6, #0
 80027d0:	2700      	movs	r7, #0
/Users/Luppy/stm32bluepill-unittest/src/../lib/nano-float/test/test.c:309
x = 7*pi/4;    r = tan(x);      TEST_ASSERT_EQUAL_DOUBLE( -1.000000   , r );
 80027d2:	e9cd 2300 	strd	r2, r3, [sp]
 80027d6:	4642      	mov	r2, r8
 80027d8:	464b      	mov	r3, r9
 80027da:	f002 f839 	bl	8004850 <UnityAssertDoublesWithin>
/Users/Luppy/stm32bluepill-unittest/src/../lib/nano-float/test/test.c:310
x = +0;        r = tan(x);      TEST_ASSERT_EQUAL_DOUBLE( 0.000000    , r );
 80027de:	e9c5 6700 	strd	r6, r7, [r5]
 80027e2:	e9d5 0100 	ldrd	r0, r1, [r5]
 80027e6:	f002 fb11 	bl	8004e0c <tan>
 80027ea:	e9c4 0100 	strd	r0, r1, [r4]
 80027ee:	f44f 719b 	mov.w	r1, #310	; 0x136
 80027f2:	e9d4 2300 	ldrd	r2, r3, [r4]
 80027f6:	e9cd a102 	strd	sl, r1, [sp, #8]
 80027fa:	e9cd 2300 	strd	r2, r3, [sp]
 80027fe:	4630      	mov	r0, r6
 8002800:	4632      	mov	r2, r6
 8002802:	463b      	mov	r3, r7
 8002804:	4639      	mov	r1, r7
 8002806:	f002 f823 	bl	8004850 <UnityAssertDoublesWithin>
/Users/Luppy/stm32bluepill-unittest/src/../lib/nano-float/test/test.c:311
x = -0;        r = tan(x);      TEST_ASSERT_EQUAL_DOUBLE( -0.000000   , r );
 800280a:	e9c5 6700 	strd	r6, r7, [r5]
 800280e:	e9d5 0100 	ldrd	r0, r1, [r5]
 8002812:	f002 fafb 	bl	8004e0c <tan>
 8002816:	e9c4 0100 	strd	r0, r1, [r4]
 800281a:	f240 1137 	movw	r1, #311	; 0x137
 800281e:	e9d4 2300 	ldrd	r2, r3, [r4]
 8002822:	e9cd 2300 	strd	r2, r3, [sp]
 8002826:	2200      	movs	r2, #0
 8002828:	f04f 4300 	mov.w	r3, #2147483648	; 0x80000000
 800282c:	e9cd a102 	strd	sl, r1, [sp, #8]
 8002830:	4610      	mov	r0, r2
 8002832:	4619      	mov	r1, r3
 8002834:	f002 f80c 	bl	8004850 <UnityAssertDoublesWithin>
/Users/Luppy/stm32bluepill-unittest/src/../lib/nano-float/test/test.c:313
}
 8002838:	b004      	add	sp, #16
 800283a:	e8bd 87f0 	ldmia.w	sp!, {r4, r5, r6, r7, r8, r9, sl, pc}
 800283e:	bf00      	nop
 8002840:	7f3321d2 	.word	0x7f3321d2
 8002844:	4002d97c 	.word	0x4002d97c
 8002848:	a0b5ed8d 	.word	0xa0b5ed8d
 800284c:	beb0c6f7 	.word	0xbeb0c6f7
 8002850:	2955385e 	.word	0x2955385e
 8002854:	400f6a7a 	.word	0x400f6a7a
 8002858:	a0b5ed8d 	.word	0xa0b5ed8d
 800285c:	3eb0c6f7 	.word	0x3eb0c6f7
 8002860:	e9bba775 	.word	0xe9bba775
 8002864:	4015fdbb 	.word	0x4015fdbb
 8002868:	20000018 	.word	0x20000018
 800286c:	20000000 	.word	0x20000000
 8002870:	3ff00000 	.word	0x3ff00000
 8002874:	bff00000 	.word	0xbff00000

08002878 <test_atan2>:
test_atan2():
/Users/Luppy/stm32bluepill-unittest/src/../lib/nano-float/test/test.c:315
void test_atan2(void) {
 8002878:	e92d 4ff0 	stmdb	sp!, {r4, r5, r6, r7, r8, r9, sl, fp, lr}
/Users/Luppy/stm32bluepill-unittest/src/../lib/nano-float/test/test.c:316
x = +1;        y = +1;   r = atan2(x, y);    TEST_ASSERT_EQUAL_DOUBLE( 0.785398    , r );
 800287c:	2600      	movs	r6, #0
 800287e:	f8df a210 	ldr.w	sl, [pc, #528]	; 8002a90 <test_atan2+0x218>
 8002882:	4d7f      	ldr	r5, [pc, #508]	; (8002a80 <test_atan2+0x208>)
 8002884:	4f7f      	ldr	r7, [pc, #508]	; (8002a84 <test_atan2+0x20c>)
/Users/Luppy/stm32bluepill-unittest/src/../lib/nano-float/test/test.c:315
void test_atan2(void) {
 8002886:	b085      	sub	sp, #20
/Users/Luppy/stm32bluepill-unittest/src/../lib/nano-float/test/test.c:316
x = +1;        y = +1;   r = atan2(x, y);    TEST_ASSERT_EQUAL_DOUBLE( 0.785398    , r );
 8002888:	e9ca 6700 	strd	r6, r7, [sl]
 800288c:	e9c5 6700 	strd	r6, r7, [r5]
 8002890:	e9da 0100 	ldrd	r0, r1, [sl]
 8002894:	e9d5 2300 	ldrd	r2, r3, [r5]
 8002898:	f002 fac6 	bl	8004e28 <atan2>
 800289c:	4c7a      	ldr	r4, [pc, #488]	; (8002a88 <test_atan2+0x210>)
 800289e:	f04f 0b00 	mov.w	fp, #0
 80028a2:	e9c4 0100 	strd	r0, r1, [r4]
 80028a6:	f44f 719e 	mov.w	r1, #316	; 0x13c
 80028aa:	e9d4 2300 	ldrd	r2, r3, [r4]
/Users/Luppy/stm32bluepill-unittest/src/../lib/nano-float/test/test.c:317
x = +1;        y = -1;   r = atan2(x, y);    TEST_ASSERT_EQUAL_DOUBLE( 2.356194    , r );
 80028ae:	f04f 0800 	mov.w	r8, #0
 80028b2:	f8df 91e0 	ldr.w	r9, [pc, #480]	; 8002a94 <test_atan2+0x21c>
/Users/Luppy/stm32bluepill-unittest/src/../lib/nano-float/test/test.c:316
x = +1;        y = +1;   r = atan2(x, y);    TEST_ASSERT_EQUAL_DOUBLE( 0.785398    , r );
 80028b6:	e9cd b102 	strd	fp, r1, [sp, #8]
 80028ba:	a15d      	add	r1, pc, #372	; (adr r1, 8002a30 <test_atan2+0x1b8>)
 80028bc:	e9d1 0100 	ldrd	r0, r1, [r1]
 80028c0:	e9cd 2300 	strd	r2, r3, [sp]
 80028c4:	a35c      	add	r3, pc, #368	; (adr r3, 8002a38 <test_atan2+0x1c0>)
 80028c6:	e9d3 2300 	ldrd	r2, r3, [r3]
 80028ca:	f001 ffc1 	bl	8004850 <UnityAssertDoublesWithin>
/Users/Luppy/stm32bluepill-unittest/src/../lib/nano-float/test/test.c:317
x = +1;        y = -1;   r = atan2(x, y);    TEST_ASSERT_EQUAL_DOUBLE( 2.356194    , r );
 80028ce:	e9ca 6700 	strd	r6, r7, [sl]
 80028d2:	e9c5 8900 	strd	r8, r9, [r5]
 80028d6:	e9da 0100 	ldrd	r0, r1, [sl]
 80028da:	e9d5 2300 	ldrd	r2, r3, [r5]
 80028de:	f002 faa3 	bl	8004e28 <atan2>
 80028e2:	e9c4 0100 	strd	r0, r1, [r4]
 80028e6:	f240 113d 	movw	r1, #317	; 0x13d
 80028ea:	e9d4 2300 	ldrd	r2, r3, [r4]
 80028ee:	e9cd b102 	strd	fp, r1, [sp, #8]
 80028f2:	a153      	add	r1, pc, #332	; (adr r1, 8002a40 <test_atan2+0x1c8>)
 80028f4:	e9d1 0100 	ldrd	r0, r1, [r1]
 80028f8:	e9cd 2300 	strd	r2, r3, [sp]
 80028fc:	a352      	add	r3, pc, #328	; (adr r3, 8002a48 <test_atan2+0x1d0>)
 80028fe:	e9d3 2300 	ldrd	r2, r3, [r3]
 8002902:	f001 ffa5 	bl	8004850 <UnityAssertDoublesWithin>
/Users/Luppy/stm32bluepill-unittest/src/../lib/nano-float/test/test.c:318
x = -1;        y = -1;   r = atan2(x, y);    TEST_ASSERT_EQUAL_DOUBLE( -2.356194   , r );
 8002906:	e9ca 8900 	strd	r8, r9, [sl]
 800290a:	e9c5 8900 	strd	r8, r9, [r5]
 800290e:	e9da 0100 	ldrd	r0, r1, [sl]
 8002912:	e9d5 2300 	ldrd	r2, r3, [r5]
 8002916:	f002 fa87 	bl	8004e28 <atan2>
 800291a:	e9c4 0100 	strd	r0, r1, [r4]
 800291e:	f44f 719f 	mov.w	r1, #318	; 0x13e
 8002922:	e9d4 2300 	ldrd	r2, r3, [r4]
 8002926:	e9cd b102 	strd	fp, r1, [sp, #8]
 800292a:	a149      	add	r1, pc, #292	; (adr r1, 8002a50 <test_atan2+0x1d8>)
 800292c:	e9d1 0100 	ldrd	r0, r1, [r1]
 8002930:	e9cd 2300 	strd	r2, r3, [sp]
 8002934:	a348      	add	r3, pc, #288	; (adr r3, 8002a58 <test_atan2+0x1e0>)
 8002936:	e9d3 2300 	ldrd	r2, r3, [r3]
 800293a:	f001 ff89 	bl	8004850 <UnityAssertDoublesWithin>
/Users/Luppy/stm32bluepill-unittest/src/../lib/nano-float/test/test.c:319
x = -1;        y = +1;   r = atan2(x, y);    TEST_ASSERT_EQUAL_DOUBLE( -0.785398   , r );
 800293e:	e9ca 8900 	strd	r8, r9, [sl]
/Users/Luppy/stm32bluepill-unittest/src/../lib/nano-float/test/test.c:321
x = 7;         y = 0;    r = atan2(x, y);    TEST_ASSERT_EQUAL_DOUBLE( 1.570796    , r );
 8002942:	f20f 191c 	addw	r9, pc, #284	; 0x11c
 8002946:	e9d9 8900 	ldrd	r8, r9, [r9]
/Users/Luppy/stm32bluepill-unittest/src/../lib/nano-float/test/test.c:319
x = -1;        y = +1;   r = atan2(x, y);    TEST_ASSERT_EQUAL_DOUBLE( -0.785398   , r );
 800294a:	e9c5 6700 	strd	r6, r7, [r5]
 800294e:	e9da 0100 	ldrd	r0, r1, [sl]
 8002952:	e9d5 2300 	ldrd	r2, r3, [r5]
 8002956:	f002 fa67 	bl	8004e28 <atan2>
 800295a:	e9c4 0100 	strd	r0, r1, [r4]
 800295e:	f240 113f 	movw	r1, #319	; 0x13f
 8002962:	e9d4 2300 	ldrd	r2, r3, [r4]
/Users/Luppy/stm32bluepill-unittest/src/../lib/nano-float/test/test.c:320
x = 0;         y = 0;    r = atan2(x, y);    TEST_ASSERT_EQUAL_DOUBLE( 0.000000    , r );
 8002966:	2600      	movs	r6, #0
 8002968:	2700      	movs	r7, #0
/Users/Luppy/stm32bluepill-unittest/src/../lib/nano-float/test/test.c:319
x = -1;        y = +1;   r = atan2(x, y);    TEST_ASSERT_EQUAL_DOUBLE( -0.785398   , r );
 800296a:	e9cd b102 	strd	fp, r1, [sp, #8]
 800296e:	a13e      	add	r1, pc, #248	; (adr r1, 8002a68 <test_atan2+0x1f0>)
 8002970:	e9d1 0100 	ldrd	r0, r1, [r1]
 8002974:	e9cd 2300 	strd	r2, r3, [sp]
 8002978:	a33d      	add	r3, pc, #244	; (adr r3, 8002a70 <test_atan2+0x1f8>)
 800297a:	e9d3 2300 	ldrd	r2, r3, [r3]
 800297e:	f001 ff67 	bl	8004850 <UnityAssertDoublesWithin>
/Users/Luppy/stm32bluepill-unittest/src/../lib/nano-float/test/test.c:320
x = 0;         y = 0;    r = atan2(x, y);    TEST_ASSERT_EQUAL_DOUBLE( 0.000000    , r );
 8002982:	e9ca 6700 	strd	r6, r7, [sl]
 8002986:	e9c5 6700 	strd	r6, r7, [r5]
 800298a:	e9da 0100 	ldrd	r0, r1, [sl]
 800298e:	e9d5 2300 	ldrd	r2, r3, [r5]
 8002992:	f002 fa49 	bl	8004e28 <atan2>
 8002996:	e9c4 0100 	strd	r0, r1, [r4]
 800299a:	f44f 71a0 	mov.w	r1, #320	; 0x140
 800299e:	e9d4 2300 	ldrd	r2, r3, [r4]
 80029a2:	e9cd b102 	strd	fp, r1, [sp, #8]
 80029a6:	e9cd 2300 	strd	r2, r3, [sp]
 80029aa:	4630      	mov	r0, r6
 80029ac:	4632      	mov	r2, r6
 80029ae:	463b      	mov	r3, r7
 80029b0:	4639      	mov	r1, r7
 80029b2:	f001 ff4d 	bl	8004850 <UnityAssertDoublesWithin>
/Users/Luppy/stm32bluepill-unittest/src/../lib/nano-float/test/test.c:321
x = 7;         y = 0;    r = atan2(x, y);    TEST_ASSERT_EQUAL_DOUBLE( 1.570796    , r );
 80029b6:	2200      	movs	r2, #0
 80029b8:	4b34      	ldr	r3, [pc, #208]	; (8002a8c <test_atan2+0x214>)
 80029ba:	e9ca 2300 	strd	r2, r3, [sl]
 80029be:	e9c5 6700 	strd	r6, r7, [r5]
 80029c2:	e9da 0100 	ldrd	r0, r1, [sl]
 80029c6:	e9d5 2300 	ldrd	r2, r3, [r5]
 80029ca:	f002 fa2d 	bl	8004e28 <atan2>
 80029ce:	e9c4 0100 	strd	r0, r1, [r4]
 80029d2:	f240 1141 	movw	r1, #321	; 0x141
 80029d6:	e9d4 2300 	ldrd	r2, r3, [r4]
 80029da:	e9cd b102 	strd	fp, r1, [sp, #8]
 80029de:	a126      	add	r1, pc, #152	; (adr r1, 8002a78 <test_atan2+0x200>)
 80029e0:	e9d1 0100 	ldrd	r0, r1, [r1]
 80029e4:	e9cd 2300 	strd	r2, r3, [sp]
 80029e8:	4642      	mov	r2, r8
 80029ea:	464b      	mov	r3, r9
 80029ec:	f001 ff30 	bl	8004850 <UnityAssertDoublesWithin>
/Users/Luppy/stm32bluepill-unittest/src/../lib/nano-float/test/test.c:322
x = 7;         y = -0;   r = atan2(x, y);    TEST_ASSERT_EQUAL_DOUBLE( 1.570796    , r );
 80029f0:	2200      	movs	r2, #0
 80029f2:	4b26      	ldr	r3, [pc, #152]	; (8002a8c <test_atan2+0x214>)
 80029f4:	e9ca 2300 	strd	r2, r3, [sl]
 80029f8:	e9c5 6700 	strd	r6, r7, [r5]
 80029fc:	e9da 0100 	ldrd	r0, r1, [sl]
 8002a00:	e9d5 2300 	ldrd	r2, r3, [r5]
 8002a04:	f002 fa10 	bl	8004e28 <atan2>
 8002a08:	e9c4 0100 	strd	r0, r1, [r4]
 8002a0c:	f44f 71a1 	mov.w	r1, #322	; 0x142
 8002a10:	e9d4 2300 	ldrd	r2, r3, [r4]
 8002a14:	e9cd b102 	strd	fp, r1, [sp, #8]
 8002a18:	a117      	add	r1, pc, #92	; (adr r1, 8002a78 <test_atan2+0x200>)
 8002a1a:	e9d1 0100 	ldrd	r0, r1, [r1]
 8002a1e:	e9cd 2300 	strd	r2, r3, [sp]
 8002a22:	4642      	mov	r2, r8
 8002a24:	464b      	mov	r3, r9
 8002a26:	f001 ff13 	bl	8004850 <UnityAssertDoublesWithin>
/Users/Luppy/stm32bluepill-unittest/src/../lib/nano-float/test/test.c:323
}
 8002a2a:	b005      	add	sp, #20
 8002a2c:	e8bd 8ff0 	ldmia.w	sp!, {r4, r5, r6, r7, r8, r9, sl, fp, pc}
 8002a30:	778466ab 	.word	0x778466ab
 8002a34:	3eaa5a84 	.word	0x3eaa5a84
 8002a38:	fc8b007a 	.word	0xfc8b007a
 8002a3c:	3fe921fa 	.word	0x3fe921fa
 8002a40:	59a34d00 	.word	0x59a34d00
 8002a44:	3ec3c3e3 	.word	0x3ec3c3e3
 8002a48:	3d68405b 	.word	0x3d68405b
 8002a4c:	4002d97c 	.word	0x4002d97c
 8002a50:	59a34d00 	.word	0x59a34d00
 8002a54:	bec3c3e3 	.word	0xbec3c3e3
 8002a58:	3d68405b 	.word	0x3d68405b
 8002a5c:	c002d97c 	.word	0xc002d97c
 8002a60:	fc8b007a 	.word	0xfc8b007a
 8002a64:	3ff921fa 	.word	0x3ff921fa
 8002a68:	778466ab 	.word	0x778466ab
 8002a6c:	beaa5a84 	.word	0xbeaa5a84
 8002a70:	fc8b007a 	.word	0xfc8b007a
 8002a74:	bfe921fa 	.word	0xbfe921fa
 8002a78:	778466ab 	.word	0x778466ab
 8002a7c:	3eba5a84 	.word	0x3eba5a84
 8002a80:	20000028 	.word	0x20000028
 8002a84:	3ff00000 	.word	0x3ff00000
 8002a88:	20000000 	.word	0x20000000
 8002a8c:	401c0000 	.word	0x401c0000
 8002a90:	20000018 	.word	0x20000018
 8002a94:	bff00000 	.word	0xbff00000

08002a98 <test_atan>:
test_atan():
/Users/Luppy/stm32bluepill-unittest/src/../lib/nano-float/test/test.c:325
void test_atan(void) {
 8002a98:	e92d 437f 	stmdb	sp!, {r0, r1, r2, r3, r4, r5, r6, r8, r9, lr}
/Users/Luppy/stm32bluepill-unittest/src/../lib/nano-float/test/test.c:326
x = 1;         r = atan(x);     TEST_ASSERT_EQUAL_DOUBLE( 0.785398    , r );
 8002a9c:	2200      	movs	r2, #0
 8002a9e:	4d2e      	ldr	r5, [pc, #184]	; (8002b58 <test_atan+0xc0>)
 8002aa0:	4b2e      	ldr	r3, [pc, #184]	; (8002b5c <test_atan+0xc4>)
 8002aa2:	4c2f      	ldr	r4, [pc, #188]	; (8002b60 <test_atan+0xc8>)
 8002aa4:	e9c5 2300 	strd	r2, r3, [r5]
 8002aa8:	e9d5 0100 	ldrd	r0, r1, [r5]
 8002aac:	f002 f9e4 	bl	8004e78 <atan>
 8002ab0:	2600      	movs	r6, #0
 8002ab2:	e9c4 0100 	strd	r0, r1, [r4]
 8002ab6:	f44f 71a3 	mov.w	r1, #326	; 0x146
 8002aba:	e9d4 2300 	ldrd	r2, r3, [r4]
/Users/Luppy/stm32bluepill-unittest/src/../lib/nano-float/test/test.c:328
x = -0.0;      r = atan(x);     TEST_ASSERT_EQUAL_DOUBLE( -0.000000   , r );
 8002abe:	f04f 0800 	mov.w	r8, #0
 8002ac2:	f04f 4900 	mov.w	r9, #2147483648	; 0x80000000
/Users/Luppy/stm32bluepill-unittest/src/../lib/nano-float/test/test.c:326
x = 1;         r = atan(x);     TEST_ASSERT_EQUAL_DOUBLE( 0.785398    , r );
 8002ac6:	e9cd 6102 	strd	r6, r1, [sp, #8]
 8002aca:	a11f      	add	r1, pc, #124	; (adr r1, 8002b48 <test_atan+0xb0>)
 8002acc:	e9d1 0100 	ldrd	r0, r1, [r1]
 8002ad0:	e9cd 2300 	strd	r2, r3, [sp]
 8002ad4:	a31e      	add	r3, pc, #120	; (adr r3, 8002b50 <test_atan+0xb8>)
 8002ad6:	e9d3 2300 	ldrd	r2, r3, [r3]
 8002ada:	f001 feb9 	bl	8004850 <UnityAssertDoublesWithin>
/Users/Luppy/stm32bluepill-unittest/src/../lib/nano-float/test/test.c:328
x = -0.0;      r = atan(x);     TEST_ASSERT_EQUAL_DOUBLE( -0.000000   , r );
 8002ade:	e9c5 8900 	strd	r8, r9, [r5]
 8002ae2:	e9d5 0100 	ldrd	r0, r1, [r5]
 8002ae6:	f002 f9c7 	bl	8004e78 <atan>
 8002aea:	e9c4 0100 	strd	r0, r1, [r4]
 8002aee:	f44f 71a4 	mov.w	r1, #328	; 0x148
 8002af2:	e9d4 2300 	ldrd	r2, r3, [r4]
 8002af6:	e9cd 6102 	strd	r6, r1, [sp, #8]
 8002afa:	e9cd 2300 	strd	r2, r3, [sp]
 8002afe:	4640      	mov	r0, r8
 8002b00:	4642      	mov	r2, r8
 8002b02:	464b      	mov	r3, r9
/Users/Luppy/stm32bluepill-unittest/src/../lib/nano-float/test/test.c:329
x = +0.0;      r = atan(x);     TEST_ASSERT_EQUAL_DOUBLE( +0.000000   , r );
 8002b04:	f04f 0800 	mov.w	r8, #0
/Users/Luppy/stm32bluepill-unittest/src/../lib/nano-float/test/test.c:328
x = -0.0;      r = atan(x);     TEST_ASSERT_EQUAL_DOUBLE( -0.000000   , r );
 8002b08:	4649      	mov	r1, r9
/Users/Luppy/stm32bluepill-unittest/src/../lib/nano-float/test/test.c:329
x = +0.0;      r = atan(x);     TEST_ASSERT_EQUAL_DOUBLE( +0.000000   , r );
 8002b0a:	f04f 0900 	mov.w	r9, #0
/Users/Luppy/stm32bluepill-unittest/src/../lib/nano-float/test/test.c:328
x = -0.0;      r = atan(x);     TEST_ASSERT_EQUAL_DOUBLE( -0.000000   , r );
 8002b0e:	f001 fe9f 	bl	8004850 <UnityAssertDoublesWithin>
/Users/Luppy/stm32bluepill-unittest/src/../lib/nano-float/test/test.c:329
x = +0.0;      r = atan(x);     TEST_ASSERT_EQUAL_DOUBLE( +0.000000   , r );
 8002b12:	e9c5 8900 	strd	r8, r9, [r5]
 8002b16:	e9d5 0100 	ldrd	r0, r1, [r5]
 8002b1a:	f002 f9ad 	bl	8004e78 <atan>
 8002b1e:	e9c4 0100 	strd	r0, r1, [r4]
 8002b22:	f240 1149 	movw	r1, #329	; 0x149
 8002b26:	e9d4 2300 	ldrd	r2, r3, [r4]
 8002b2a:	e9cd 6102 	strd	r6, r1, [sp, #8]
 8002b2e:	e9cd 2300 	strd	r2, r3, [sp]
 8002b32:	4640      	mov	r0, r8
 8002b34:	4642      	mov	r2, r8
 8002b36:	464b      	mov	r3, r9
 8002b38:	4649      	mov	r1, r9
 8002b3a:	f001 fe89 	bl	8004850 <UnityAssertDoublesWithin>
/Users/Luppy/stm32bluepill-unittest/src/../lib/nano-float/test/test.c:330
}
 8002b3e:	b004      	add	sp, #16
 8002b40:	e8bd 8370 	ldmia.w	sp!, {r4, r5, r6, r8, r9, pc}
 8002b44:	f3af 8000 	nop.w
 8002b48:	778466ab 	.word	0x778466ab
 8002b4c:	3eaa5a84 	.word	0x3eaa5a84
 8002b50:	fc8b007a 	.word	0xfc8b007a
 8002b54:	3fe921fa 	.word	0x3fe921fa
 8002b58:	20000018 	.word	0x20000018
 8002b5c:	3ff00000 	.word	0x3ff00000
 8002b60:	20000000 	.word	0x20000000
 8002b64:	00000000 	.word	0x00000000

08002b68 <test_asin>:
test_asin():
/Users/Luppy/stm32bluepill-unittest/src/../lib/nano-float/test/test.c:332
void test_asin(void) {
 8002b68:	b57f      	push	{r0, r1, r2, r3, r4, r5, r6, lr}
/Users/Luppy/stm32bluepill-unittest/src/../lib/nano-float/test/test.c:333
x =  1.0;      r = asin(x);     TEST_ASSERT_EQUAL_DOUBLE( +1.570796   , r );
 8002b6a:	2200      	movs	r2, #0
 8002b6c:	4d24      	ldr	r5, [pc, #144]	; (8002c00 <test_asin+0x98>)
 8002b6e:	4b25      	ldr	r3, [pc, #148]	; (8002c04 <test_asin+0x9c>)
 8002b70:	4c25      	ldr	r4, [pc, #148]	; (8002c08 <test_asin+0xa0>)
 8002b72:	e9c5 2300 	strd	r2, r3, [r5]
 8002b76:	e9d5 0100 	ldrd	r0, r1, [r5]
 8002b7a:	f002 f9d3 	bl	8004f24 <asin>
 8002b7e:	2600      	movs	r6, #0
 8002b80:	e9c4 0100 	strd	r0, r1, [r4]
 8002b84:	f240 114d 	movw	r1, #333	; 0x14d
 8002b88:	e9d4 2300 	ldrd	r2, r3, [r4]
 8002b8c:	e9cd 6102 	strd	r6, r1, [sp, #8]
 8002b90:	a113      	add	r1, pc, #76	; (adr r1, 8002be0 <test_asin+0x78>)
 8002b92:	e9d1 0100 	ldrd	r0, r1, [r1]
 8002b96:	e9cd 2300 	strd	r2, r3, [sp]
 8002b9a:	a313      	add	r3, pc, #76	; (adr r3, 8002be8 <test_asin+0x80>)
 8002b9c:	e9d3 2300 	ldrd	r2, r3, [r3]
 8002ba0:	f001 fe56 	bl	8004850 <UnityAssertDoublesWithin>
/Users/Luppy/stm32bluepill-unittest/src/../lib/nano-float/test/test.c:334
x = -0.5;      r = asin(x);     TEST_ASSERT_EQUAL_DOUBLE( -0.523599   , r );
 8002ba4:	2200      	movs	r2, #0
 8002ba6:	4b19      	ldr	r3, [pc, #100]	; (8002c0c <test_asin+0xa4>)
 8002ba8:	e9c5 2300 	strd	r2, r3, [r5]
 8002bac:	e9d5 0100 	ldrd	r0, r1, [r5]
 8002bb0:	f002 f9b8 	bl	8004f24 <asin>
 8002bb4:	e9c4 0100 	strd	r0, r1, [r4]
 8002bb8:	f44f 71a7 	mov.w	r1, #334	; 0x14e
 8002bbc:	e9d4 2300 	ldrd	r2, r3, [r4]
 8002bc0:	e9cd 6102 	strd	r6, r1, [sp, #8]
 8002bc4:	a10a      	add	r1, pc, #40	; (adr r1, 8002bf0 <test_asin+0x88>)
 8002bc6:	e9d1 0100 	ldrd	r0, r1, [r1]
 8002bca:	e9cd 2300 	strd	r2, r3, [sp]
 8002bce:	a30a      	add	r3, pc, #40	; (adr r3, 8002bf8 <test_asin+0x90>)
 8002bd0:	e9d3 2300 	ldrd	r2, r3, [r3]
 8002bd4:	f001 fe3c 	bl	8004850 <UnityAssertDoublesWithin>
/Users/Luppy/stm32bluepill-unittest/src/../lib/nano-float/test/test.c:336
}
 8002bd8:	b004      	add	sp, #16
 8002bda:	bd70      	pop	{r4, r5, r6, pc}
 8002bdc:	f3af 8000 	nop.w
 8002be0:	778466ab 	.word	0x778466ab
 8002be4:	3eba5a84 	.word	0x3eba5a84
 8002be8:	fc8b007a 	.word	0xfc8b007a
 8002bec:	3ff921fa 	.word	0x3ff921fa
 8002bf0:	60a9547f 	.word	0x60a9547f
 8002bf4:	bea191ae 	.word	0xbea191ae
 8002bf8:	b0a6fc59 	.word	0xb0a6fc59
 8002bfc:	bfe0c152 	.word	0xbfe0c152
 8002c00:	20000018 	.word	0x20000018
 8002c04:	3ff00000 	.word	0x3ff00000
 8002c08:	20000000 	.word	0x20000000
 8002c0c:	bfe00000 	.word	0xbfe00000

08002c10 <test_acos>:
test_acos():
/Users/Luppy/stm32bluepill-unittest/src/../lib/nano-float/test/test.c:338
void test_acos(void) {
 8002c10:	e92d 437f 	stmdb	sp!, {r0, r1, r2, r3, r4, r5, r6, r8, r9, lr}
/Users/Luppy/stm32bluepill-unittest/src/../lib/nano-float/test/test.c:339
x = -1;        r = acos(x);     TEST_ASSERT_EQUAL_DOUBLE( 3.141593    , r );
 8002c14:	2200      	movs	r2, #0
 8002c16:	4d56      	ldr	r5, [pc, #344]	; (8002d70 <test_acos+0x160>)
 8002c18:	4b56      	ldr	r3, [pc, #344]	; (8002d74 <test_acos+0x164>)
 8002c1a:	4c57      	ldr	r4, [pc, #348]	; (8002d78 <test_acos+0x168>)
 8002c1c:	e9c5 2300 	strd	r2, r3, [r5]
 8002c20:	e9d5 0100 	ldrd	r0, r1, [r5]
 8002c24:	f002 f9c4 	bl	8004fb0 <acos>
 8002c28:	2600      	movs	r6, #0
 8002c2a:	e9c4 0100 	strd	r0, r1, [r4]
 8002c2e:	f240 1153 	movw	r1, #339	; 0x153
 8002c32:	e9d4 2300 	ldrd	r2, r3, [r4]
 8002c36:	e9cd 6102 	strd	r6, r1, [sp, #8]
 8002c3a:	a13b      	add	r1, pc, #236	; (adr r1, 8002d28 <test_acos+0x118>)
 8002c3c:	e9d1 0100 	ldrd	r0, r1, [r1]
 8002c40:	e9cd 2300 	strd	r2, r3, [sp]
 8002c44:	a33a      	add	r3, pc, #232	; (adr r3, 8002d30 <test_acos+0x120>)
 8002c46:	e9d3 2300 	ldrd	r2, r3, [r3]
 8002c4a:	f001 fe01 	bl	8004850 <UnityAssertDoublesWithin>
/Users/Luppy/stm32bluepill-unittest/src/../lib/nano-float/test/test.c:340
x = -0.9;      r = acos(x);     TEST_ASSERT_EQUAL_DOUBLE( 2.690565    , r );
 8002c4e:	a33a      	add	r3, pc, #232	; (adr r3, 8002d38 <test_acos+0x128>)
 8002c50:	e9d3 2300 	ldrd	r2, r3, [r3]
 8002c54:	e9c5 2300 	strd	r2, r3, [r5]
 8002c58:	e9d5 0100 	ldrd	r0, r1, [r5]
 8002c5c:	f002 f9a8 	bl	8004fb0 <acos>
 8002c60:	e9c4 0100 	strd	r0, r1, [r4]
 8002c64:	f44f 71aa 	mov.w	r1, #340	; 0x154
 8002c68:	e9d4 2300 	ldrd	r2, r3, [r4]
/Users/Luppy/stm32bluepill-unittest/src/../lib/nano-float/test/test.c:341
x = 0.0;       r = acos(x);     TEST_ASSERT_EQUAL_DOUBLE( 1.570796    , r );
 8002c6c:	f04f 0800 	mov.w	r8, #0
 8002c70:	f04f 0900 	mov.w	r9, #0
/Users/Luppy/stm32bluepill-unittest/src/../lib/nano-float/test/test.c:340
x = -0.9;      r = acos(x);     TEST_ASSERT_EQUAL_DOUBLE( 2.690565    , r );
 8002c74:	e9cd 6102 	strd	r6, r1, [sp, #8]
 8002c78:	a131      	add	r1, pc, #196	; (adr r1, 8002d40 <test_acos+0x130>)
 8002c7a:	e9d1 0100 	ldrd	r0, r1, [r1]
 8002c7e:	e9cd 2300 	strd	r2, r3, [sp]
 8002c82:	a331      	add	r3, pc, #196	; (adr r3, 8002d48 <test_acos+0x138>)
 8002c84:	e9d3 2300 	ldrd	r2, r3, [r3]
 8002c88:	f001 fde2 	bl	8004850 <UnityAssertDoublesWithin>
/Users/Luppy/stm32bluepill-unittest/src/../lib/nano-float/test/test.c:341
x = 0.0;       r = acos(x);     TEST_ASSERT_EQUAL_DOUBLE( 1.570796    , r );
 8002c8c:	e9c5 8900 	strd	r8, r9, [r5]
 8002c90:	e9d5 0100 	ldrd	r0, r1, [r5]
 8002c94:	f002 f98c 	bl	8004fb0 <acos>
 8002c98:	e9c4 0100 	strd	r0, r1, [r4]
 8002c9c:	f240 1155 	movw	r1, #341	; 0x155
 8002ca0:	e9d4 2300 	ldrd	r2, r3, [r4]
 8002ca4:	e9cd 6102 	strd	r6, r1, [sp, #8]
 8002ca8:	a129      	add	r1, pc, #164	; (adr r1, 8002d50 <test_acos+0x140>)
 8002caa:	e9d1 0100 	ldrd	r0, r1, [r1]
 8002cae:	e9cd 2300 	strd	r2, r3, [sp]
 8002cb2:	a329      	add	r3, pc, #164	; (adr r3, 8002d58 <test_acos+0x148>)
 8002cb4:	e9d3 2300 	ldrd	r2, r3, [r3]
 8002cb8:	f001 fdca 	bl	8004850 <UnityAssertDoublesWithin>
/Users/Luppy/stm32bluepill-unittest/src/../lib/nano-float/test/test.c:342
x = 0.5;       r = acos(x);     TEST_ASSERT_EQUAL_DOUBLE( 1.047198    , r );
 8002cbc:	2200      	movs	r2, #0
 8002cbe:	4b2f      	ldr	r3, [pc, #188]	; (8002d7c <test_acos+0x16c>)
 8002cc0:	e9c5 2300 	strd	r2, r3, [r5]
 8002cc4:	e9d5 0100 	ldrd	r0, r1, [r5]
 8002cc8:	f002 f972 	bl	8004fb0 <acos>
 8002ccc:	e9c4 0100 	strd	r0, r1, [r4]
 8002cd0:	f44f 71ab 	mov.w	r1, #342	; 0x156
 8002cd4:	e9d4 2300 	ldrd	r2, r3, [r4]
 8002cd8:	e9cd 6102 	strd	r6, r1, [sp, #8]
 8002cdc:	a120      	add	r1, pc, #128	; (adr r1, 8002d60 <test_acos+0x150>)
 8002cde:	e9d1 0100 	ldrd	r0, r1, [r1]
 8002ce2:	e9cd 2300 	strd	r2, r3, [sp]
 8002ce6:	a320      	add	r3, pc, #128	; (adr r3, 8002d68 <test_acos+0x158>)
 8002ce8:	e9d3 2300 	ldrd	r2, r3, [r3]
 8002cec:	f001 fdb0 	bl	8004850 <UnityAssertDoublesWithin>
/Users/Luppy/stm32bluepill-unittest/src/../lib/nano-float/test/test.c:343
x = 1;         r = acos(x);     TEST_ASSERT_EQUAL_DOUBLE( 0.000000    , r );
 8002cf0:	2200      	movs	r2, #0
 8002cf2:	4b23      	ldr	r3, [pc, #140]	; (8002d80 <test_acos+0x170>)
 8002cf4:	e9c5 2300 	strd	r2, r3, [r5]
 8002cf8:	e9d5 0100 	ldrd	r0, r1, [r5]
 8002cfc:	f002 f958 	bl	8004fb0 <acos>
 8002d00:	e9c4 0100 	strd	r0, r1, [r4]
 8002d04:	f240 1157 	movw	r1, #343	; 0x157
 8002d08:	e9d4 2300 	ldrd	r2, r3, [r4]
 8002d0c:	e9cd 6102 	strd	r6, r1, [sp, #8]
 8002d10:	e9cd 2300 	strd	r2, r3, [sp]
 8002d14:	4640      	mov	r0, r8
 8002d16:	4642      	mov	r2, r8
 8002d18:	464b      	mov	r3, r9
 8002d1a:	4649      	mov	r1, r9
 8002d1c:	f001 fd98 	bl	8004850 <UnityAssertDoublesWithin>
/Users/Luppy/stm32bluepill-unittest/src/../lib/nano-float/test/test.c:344
}
 8002d20:	b004      	add	sp, #16
 8002d22:	e8bd 8370 	ldmia.w	sp!, {r4, r5, r6, r8, r9, pc}
 8002d26:	bf00      	nop
 8002d28:	044132b4 	.word	0x044132b4
 8002d2c:	3eca5a85 	.word	0x3eca5a85
 8002d30:	82c2bd7f 	.word	0x82c2bd7f
 8002d34:	400921fb 	.word	0x400921fb
 8002d38:	cccccccd 	.word	0xcccccccd
 8002d3c:	bfeccccc 	.word	0xbfeccccc
 8002d40:	c05b542b 	.word	0xc05b542b
 8002d44:	3ec691f1 	.word	0x3ec691f1
 8002d48:	f1561911 	.word	0xf1561911
 8002d4c:	40058646 	.word	0x40058646
 8002d50:	778466ab 	.word	0x778466ab
 8002d54:	3eba5a84 	.word	0x3eba5a84
 8002d58:	fc8b007a 	.word	0xfc8b007a
 8002d5c:	3ff921fa 	.word	0x3ff921fa
 8002d60:	60a9547f 	.word	0x60a9547f
 8002d64:	3eb191ae 	.word	0x3eb191ae
 8002d68:	b0a6fc59 	.word	0xb0a6fc59
 8002d6c:	3ff0c152 	.word	0x3ff0c152
 8002d70:	20000018 	.word	0x20000018
 8002d74:	bff00000 	.word	0xbff00000
 8002d78:	20000000 	.word	0x20000000
 8002d7c:	3fe00000 	.word	0x3fe00000
 8002d80:	3ff00000 	.word	0x3ff00000
 8002d84:	00000000 	.word	0x00000000

08002d88 <test_sinh>:
test_sinh():
/Users/Luppy/stm32bluepill-unittest/src/../lib/nano-float/test/test.c:346
void test_sinh(void) {
 8002d88:	e92d 437f 	stmdb	sp!, {r0, r1, r2, r3, r4, r5, r6, r8, r9, lr}
/Users/Luppy/stm32bluepill-unittest/src/../lib/nano-float/test/test.c:347
x = 1;          r = sinh(x);                  TEST_ASSERT_EQUAL_DOUBLE( 1.175201           , r );
 8002d8c:	2200      	movs	r2, #0
 8002d8e:	4d3e      	ldr	r5, [pc, #248]	; (8002e88 <test_sinh+0x100>)
 8002d90:	4b3e      	ldr	r3, [pc, #248]	; (8002e8c <test_sinh+0x104>)
 8002d92:	4c3f      	ldr	r4, [pc, #252]	; (8002e90 <test_sinh+0x108>)
 8002d94:	e9c5 2300 	strd	r2, r3, [r5]
 8002d98:	e9d5 0100 	ldrd	r0, r1, [r5]
 8002d9c:	f002 f96e 	bl	800507c <sinh>
 8002da0:	2600      	movs	r6, #0
 8002da2:	e9c4 0100 	strd	r0, r1, [r4]
 8002da6:	f240 115b 	movw	r1, #347	; 0x15b
 8002daa:	e9d4 2300 	ldrd	r2, r3, [r4]
 8002dae:	e9cd 6102 	strd	r6, r1, [sp, #8]
 8002db2:	a12d      	add	r1, pc, #180	; (adr r1, 8002e68 <test_sinh+0xe0>)
 8002db4:	e9d1 0100 	ldrd	r0, r1, [r1]
 8002db8:	e9cd 2300 	strd	r2, r3, [sp]
 8002dbc:	a32c      	add	r3, pc, #176	; (adr r3, 8002e70 <test_sinh+0xe8>)
 8002dbe:	e9d3 2300 	ldrd	r2, r3, [r3]
 8002dc2:	f001 fd45 	bl	8004850 <UnityAssertDoublesWithin>
/Users/Luppy/stm32bluepill-unittest/src/../lib/nano-float/test/test.c:348
x = -1;         r = sinh(x);                  TEST_ASSERT_EQUAL_DOUBLE( -1.175201          , r );
 8002dc6:	2200      	movs	r2, #0
 8002dc8:	4b32      	ldr	r3, [pc, #200]	; (8002e94 <test_sinh+0x10c>)
/Users/Luppy/stm32bluepill-unittest/src/../lib/nano-float/test/test.c:349
x = +0;         r = sinh(x);                  TEST_ASSERT_EQUAL_DOUBLE( 0.000000           , r );
 8002dca:	f04f 0800 	mov.w	r8, #0
/Users/Luppy/stm32bluepill-unittest/src/../lib/nano-float/test/test.c:348
x = -1;         r = sinh(x);                  TEST_ASSERT_EQUAL_DOUBLE( -1.175201          , r );
 8002dce:	e9c5 2300 	strd	r2, r3, [r5]
 8002dd2:	e9d5 0100 	ldrd	r0, r1, [r5]
 8002dd6:	f002 f951 	bl	800507c <sinh>
 8002dda:	e9c4 0100 	strd	r0, r1, [r4]
 8002dde:	f44f 71ae 	mov.w	r1, #348	; 0x15c
 8002de2:	e9d4 2300 	ldrd	r2, r3, [r4]
/Users/Luppy/stm32bluepill-unittest/src/../lib/nano-float/test/test.c:349
x = +0;         r = sinh(x);                  TEST_ASSERT_EQUAL_DOUBLE( 0.000000           , r );
 8002de6:	f04f 0900 	mov.w	r9, #0
/Users/Luppy/stm32bluepill-unittest/src/../lib/nano-float/test/test.c:348
x = -1;         r = sinh(x);                  TEST_ASSERT_EQUAL_DOUBLE( -1.175201          , r );
 8002dea:	e9cd 6102 	strd	r6, r1, [sp, #8]
 8002dee:	a122      	add	r1, pc, #136	; (adr r1, 8002e78 <test_sinh+0xf0>)
 8002df0:	e9d1 0100 	ldrd	r0, r1, [r1]
 8002df4:	e9cd 2300 	strd	r2, r3, [sp]
 8002df8:	a321      	add	r3, pc, #132	; (adr r3, 8002e80 <test_sinh+0xf8>)
 8002dfa:	e9d3 2300 	ldrd	r2, r3, [r3]
 8002dfe:	f001 fd27 	bl	8004850 <UnityAssertDoublesWithin>
/Users/Luppy/stm32bluepill-unittest/src/../lib/nano-float/test/test.c:349
x = +0;         r = sinh(x);                  TEST_ASSERT_EQUAL_DOUBLE( 0.000000           , r );
 8002e02:	e9c5 8900 	strd	r8, r9, [r5]
 8002e06:	e9d5 0100 	ldrd	r0, r1, [r5]
 8002e0a:	f002 f937 	bl	800507c <sinh>
 8002e0e:	e9c4 0100 	strd	r0, r1, [r4]
 8002e12:	f240 115d 	movw	r1, #349	; 0x15d
 8002e16:	e9d4 2300 	ldrd	r2, r3, [r4]
 8002e1a:	e9cd 6102 	strd	r6, r1, [sp, #8]
 8002e1e:	e9cd 2300 	strd	r2, r3, [sp]
 8002e22:	4640      	mov	r0, r8
 8002e24:	4642      	mov	r2, r8
 8002e26:	464b      	mov	r3, r9
 8002e28:	4649      	mov	r1, r9
 8002e2a:	f001 fd11 	bl	8004850 <UnityAssertDoublesWithin>
/Users/Luppy/stm32bluepill-unittest/src/../lib/nano-float/test/test.c:350
x = -0;         r = sinh(x);                  TEST_ASSERT_EQUAL_DOUBLE( -0.000000          , r );
 8002e2e:	e9c5 8900 	strd	r8, r9, [r5]
 8002e32:	e9d5 0100 	ldrd	r0, r1, [r5]
 8002e36:	f002 f921 	bl	800507c <sinh>
 8002e3a:	e9c4 0100 	strd	r0, r1, [r4]
 8002e3e:	f44f 71af 	mov.w	r1, #350	; 0x15e
 8002e42:	e9d4 2300 	ldrd	r2, r3, [r4]
 8002e46:	e9cd 2300 	strd	r2, r3, [sp]
 8002e4a:	2200      	movs	r2, #0
 8002e4c:	f04f 4300 	mov.w	r3, #2147483648	; 0x80000000
 8002e50:	e9cd 6102 	strd	r6, r1, [sp, #8]
 8002e54:	4610      	mov	r0, r2
 8002e56:	4619      	mov	r1, r3
 8002e58:	f001 fcfa 	bl	8004850 <UnityAssertDoublesWithin>
/Users/Luppy/stm32bluepill-unittest/src/../lib/nano-float/test/test.c:351
}
 8002e5c:	b004      	add	sp, #16
 8002e5e:	e8bd 8370 	ldmia.w	sp!, {r4, r5, r6, r8, r9, pc}
 8002e62:	bf00      	nop
 8002e64:	f3af 8000 	nop.w
 8002e68:	2a1af789 	.word	0x2a1af789
 8002e6c:	3eb3b773 	.word	0x3eb3b773
 8002e70:	90539fba 	.word	0x90539fba
 8002e74:	3ff2cd9f 	.word	0x3ff2cd9f
 8002e78:	2a1af789 	.word	0x2a1af789
 8002e7c:	beb3b773 	.word	0xbeb3b773
 8002e80:	90539fba 	.word	0x90539fba
 8002e84:	bff2cd9f 	.word	0xbff2cd9f
 8002e88:	20000018 	.word	0x20000018
 8002e8c:	3ff00000 	.word	0x3ff00000
 8002e90:	20000000 	.word	0x20000000
 8002e94:	bff00000 	.word	0xbff00000

08002e98 <test_cosh>:
test_cosh():
/Users/Luppy/stm32bluepill-unittest/src/../lib/nano-float/test/test.c:353
void test_cosh(void) {
 8002e98:	e92d 47ff 	stmdb	sp!, {r0, r1, r2, r3, r4, r5, r6, r7, r8, r9, sl, lr}
/Users/Luppy/stm32bluepill-unittest/src/../lib/nano-float/test/test.c:354
x = 1;          r = cosh(x);                  TEST_ASSERT_EQUAL_DOUBLE( 1.543081           , r );
 8002e9c:	f20f 09e0 	addw	r9, pc, #224	; 0xe0
 8002ea0:	e9d9 8900 	ldrd	r8, r9, [r9]
 8002ea4:	a738      	add	r7, pc, #224	; (adr r7, 8002f88 <test_cosh+0xf0>)
 8002ea6:	e9d7 6700 	ldrd	r6, r7, [r7]
 8002eaa:	2300      	movs	r3, #0
 8002eac:	4d3a      	ldr	r5, [pc, #232]	; (8002f98 <test_cosh+0x100>)
 8002eae:	4c3b      	ldr	r4, [pc, #236]	; (8002f9c <test_cosh+0x104>)
 8002eb0:	f04f 0a00 	mov.w	sl, #0
 8002eb4:	e9c5 3400 	strd	r3, r4, [r5]
 8002eb8:	e9d5 0100 	ldrd	r0, r1, [r5]
 8002ebc:	f002 f92a 	bl	8005114 <cosh>
 8002ec0:	4c37      	ldr	r4, [pc, #220]	; (8002fa0 <test_cosh+0x108>)
 8002ec2:	e9c4 0100 	strd	r0, r1, [r4]
 8002ec6:	f44f 71b1 	mov.w	r1, #354	; 0x162
 8002eca:	e9d4 2300 	ldrd	r2, r3, [r4]
 8002ece:	4630      	mov	r0, r6
 8002ed0:	e9cd 2300 	strd	r2, r3, [sp]
 8002ed4:	e9cd a102 	strd	sl, r1, [sp, #8]
 8002ed8:	4642      	mov	r2, r8
 8002eda:	464b      	mov	r3, r9
 8002edc:	4639      	mov	r1, r7
 8002ede:	f001 fcb7 	bl	8004850 <UnityAssertDoublesWithin>
/Users/Luppy/stm32bluepill-unittest/src/../lib/nano-float/test/test.c:355
x = -1;         r = cosh(x);                  TEST_ASSERT_EQUAL_DOUBLE( 1.543081           , r );
 8002ee2:	2200      	movs	r2, #0
 8002ee4:	4b2f      	ldr	r3, [pc, #188]	; (8002fa4 <test_cosh+0x10c>)
 8002ee6:	e9c5 2300 	strd	r2, r3, [r5]
 8002eea:	e9d5 0100 	ldrd	r0, r1, [r5]
 8002eee:	f002 f911 	bl	8005114 <cosh>
 8002ef2:	e9c4 0100 	strd	r0, r1, [r4]
 8002ef6:	f240 1163 	movw	r1, #355	; 0x163
 8002efa:	e9d4 2300 	ldrd	r2, r3, [r4]
 8002efe:	e9cd 2300 	strd	r2, r3, [sp]
 8002f02:	4642      	mov	r2, r8
 8002f04:	464b      	mov	r3, r9
/Users/Luppy/stm32bluepill-unittest/src/../lib/nano-float/test/test.c:356
x = +0;         r = cosh(x);                  TEST_ASSERT_EQUAL_DOUBLE( 1.000000           , r );
 8002f06:	f04f 0800 	mov.w	r8, #0
 8002f0a:	f04f 0900 	mov.w	r9, #0
/Users/Luppy/stm32bluepill-unittest/src/../lib/nano-float/test/test.c:355
x = -1;         r = cosh(x);                  TEST_ASSERT_EQUAL_DOUBLE( 1.543081           , r );
 8002f0e:	e9cd a102 	strd	sl, r1, [sp, #8]
 8002f12:	4630      	mov	r0, r6
 8002f14:	4639      	mov	r1, r7
/Users/Luppy/stm32bluepill-unittest/src/../lib/nano-float/test/test.c:356
x = +0;         r = cosh(x);                  TEST_ASSERT_EQUAL_DOUBLE( 1.000000           , r );
 8002f16:	a71e      	add	r7, pc, #120	; (adr r7, 8002f90 <test_cosh+0xf8>)
 8002f18:	e9d7 6700 	ldrd	r6, r7, [r7]
/Users/Luppy/stm32bluepill-unittest/src/../lib/nano-float/test/test.c:355
x = -1;         r = cosh(x);                  TEST_ASSERT_EQUAL_DOUBLE( 1.543081           , r );
 8002f1c:	f001 fc98 	bl	8004850 <UnityAssertDoublesWithin>
/Users/Luppy/stm32bluepill-unittest/src/../lib/nano-float/test/test.c:356
x = +0;         r = cosh(x);                  TEST_ASSERT_EQUAL_DOUBLE( 1.000000           , r );
 8002f20:	e9c5 8900 	strd	r8, r9, [r5]
 8002f24:	e9d5 0100 	ldrd	r0, r1, [r5]
 8002f28:	f002 f8f4 	bl	8005114 <cosh>
 8002f2c:	e9c4 0100 	strd	r0, r1, [r4]
 8002f30:	f44f 71b2 	mov.w	r1, #356	; 0x164
 8002f34:	e9d4 2300 	ldrd	r2, r3, [r4]
 8002f38:	4630      	mov	r0, r6
 8002f3a:	e9cd 2300 	strd	r2, r3, [sp]
 8002f3e:	e9cd a102 	strd	sl, r1, [sp, #8]
 8002f42:	2200      	movs	r2, #0
 8002f44:	4b15      	ldr	r3, [pc, #84]	; (8002f9c <test_cosh+0x104>)
 8002f46:	4639      	mov	r1, r7
 8002f48:	f001 fc82 	bl	8004850 <UnityAssertDoublesWithin>
/Users/Luppy/stm32bluepill-unittest/src/../lib/nano-float/test/test.c:357
x = -0;         r = cosh(x);                  TEST_ASSERT_EQUAL_DOUBLE( 1.000000           , r );
 8002f4c:	e9c5 8900 	strd	r8, r9, [r5]
 8002f50:	e9d5 0100 	ldrd	r0, r1, [r5]
 8002f54:	f002 f8de 	bl	8005114 <cosh>
 8002f58:	e9c4 0100 	strd	r0, r1, [r4]
 8002f5c:	f240 1165 	movw	r1, #357	; 0x165
 8002f60:	e9d4 2300 	ldrd	r2, r3, [r4]
 8002f64:	4630      	mov	r0, r6
 8002f66:	e9cd 2300 	strd	r2, r3, [sp]
 8002f6a:	e9cd a102 	strd	sl, r1, [sp, #8]
 8002f6e:	2200      	movs	r2, #0
 8002f70:	4b0a      	ldr	r3, [pc, #40]	; (8002f9c <test_cosh+0x104>)
 8002f72:	4639      	mov	r1, r7
 8002f74:	f001 fc6c 	bl	8004850 <UnityAssertDoublesWithin>
/Users/Luppy/stm32bluepill-unittest/src/../lib/nano-float/test/test.c:358
}
 8002f78:	b004      	add	sp, #16
 8002f7a:	e8bd 87f0 	ldmia.w	sp!, {r4, r5, r6, r7, r8, r9, sl, pc}
 8002f7e:	bf00      	nop
 8002f80:	b3e1437c 	.word	0xb3e1437c
 8002f84:	3ff8b075 	.word	0x3ff8b075
 8002f88:	8089a3ce 	.word	0x8089a3ce
 8002f8c:	3eb9e37b 	.word	0x3eb9e37b
 8002f90:	a0b5ed8d 	.word	0xa0b5ed8d
 8002f94:	3eb0c6f7 	.word	0x3eb0c6f7
 8002f98:	20000018 	.word	0x20000018
 8002f9c:	3ff00000 	.word	0x3ff00000
 8002fa0:	20000000 	.word	0x20000000
 8002fa4:	bff00000 	.word	0xbff00000

08002fa8 <test_tanh>:
test_tanh():
/Users/Luppy/stm32bluepill-unittest/src/../lib/nano-float/test/test.c:360
void test_tanh(void) {
 8002fa8:	e92d 437f 	stmdb	sp!, {r0, r1, r2, r3, r4, r5, r6, r8, r9, lr}
/Users/Luppy/stm32bluepill-unittest/src/../lib/nano-float/test/test.c:361
x = 1;          r = tanh(x);                  TEST_ASSERT_EQUAL_DOUBLE( 0.761594           , r );
 8002fac:	2200      	movs	r2, #0
 8002fae:	4d3e      	ldr	r5, [pc, #248]	; (80030a8 <test_tanh+0x100>)
 8002fb0:	4b3e      	ldr	r3, [pc, #248]	; (80030ac <test_tanh+0x104>)
 8002fb2:	4c3f      	ldr	r4, [pc, #252]	; (80030b0 <test_tanh+0x108>)
 8002fb4:	e9c5 2300 	strd	r2, r3, [r5]
 8002fb8:	e9d5 0100 	ldrd	r0, r1, [r5]
 8002fbc:	f002 f8fc 	bl	80051b8 <tanh>
 8002fc0:	2600      	movs	r6, #0
 8002fc2:	e9c4 0100 	strd	r0, r1, [r4]
 8002fc6:	f240 1169 	movw	r1, #361	; 0x169
 8002fca:	e9d4 2300 	ldrd	r2, r3, [r4]
 8002fce:	e9cd 6102 	strd	r6, r1, [sp, #8]
 8002fd2:	a12d      	add	r1, pc, #180	; (adr r1, 8003088 <test_tanh+0xe0>)
 8002fd4:	e9d1 0100 	ldrd	r0, r1, [r1]
 8002fd8:	e9cd 2300 	strd	r2, r3, [sp]
 8002fdc:	a32c      	add	r3, pc, #176	; (adr r3, 8003090 <test_tanh+0xe8>)
 8002fde:	e9d3 2300 	ldrd	r2, r3, [r3]
 8002fe2:	f001 fc35 	bl	8004850 <UnityAssertDoublesWithin>
/Users/Luppy/stm32bluepill-unittest/src/../lib/nano-float/test/test.c:362
x = -1;         r = tanh(x);                  TEST_ASSERT_EQUAL_DOUBLE( -0.761594          , r );
 8002fe6:	2200      	movs	r2, #0
 8002fe8:	4b32      	ldr	r3, [pc, #200]	; (80030b4 <test_tanh+0x10c>)
/Users/Luppy/stm32bluepill-unittest/src/../lib/nano-float/test/test.c:363
x = +0;         r = tanh(x);                  TEST_ASSERT_EQUAL_DOUBLE( 0.000000           , r );
 8002fea:	f04f 0800 	mov.w	r8, #0
/Users/Luppy/stm32bluepill-unittest/src/../lib/nano-float/test/test.c:362
x = -1;         r = tanh(x);                  TEST_ASSERT_EQUAL_DOUBLE( -0.761594          , r );
 8002fee:	e9c5 2300 	strd	r2, r3, [r5]
 8002ff2:	e9d5 0100 	ldrd	r0, r1, [r5]
 8002ff6:	f002 f8df 	bl	80051b8 <tanh>
 8002ffa:	e9c4 0100 	strd	r0, r1, [r4]
 8002ffe:	f44f 71b5 	mov.w	r1, #362	; 0x16a
 8003002:	e9d4 2300 	ldrd	r2, r3, [r4]
/Users/Luppy/stm32bluepill-unittest/src/../lib/nano-float/test/test.c:363
x = +0;         r = tanh(x);                  TEST_ASSERT_EQUAL_DOUBLE( 0.000000           , r );
 8003006:	f04f 0900 	mov.w	r9, #0
/Users/Luppy/stm32bluepill-unittest/src/../lib/nano-float/test/test.c:362
x = -1;         r = tanh(x);                  TEST_ASSERT_EQUAL_DOUBLE( -0.761594          , r );
 800300a:	e9cd 6102 	strd	r6, r1, [sp, #8]
 800300e:	a122      	add	r1, pc, #136	; (adr r1, 8003098 <test_tanh+0xf0>)
 8003010:	e9d1 0100 	ldrd	r0, r1, [r1]
 8003014:	e9cd 2300 	strd	r2, r3, [sp]
 8003018:	a321      	add	r3, pc, #132	; (adr r3, 80030a0 <test_tanh+0xf8>)
 800301a:	e9d3 2300 	ldrd	r2, r3, [r3]
 800301e:	f001 fc17 	bl	8004850 <UnityAssertDoublesWithin>
/Users/Luppy/stm32bluepill-unittest/src/../lib/nano-float/test/test.c:363
x = +0;         r = tanh(x);                  TEST_ASSERT_EQUAL_DOUBLE( 0.000000           , r );
 8003022:	e9c5 8900 	strd	r8, r9, [r5]
 8003026:	e9d5 0100 	ldrd	r0, r1, [r5]
 800302a:	f002 f8c5 	bl	80051b8 <tanh>
 800302e:	e9c4 0100 	strd	r0, r1, [r4]
 8003032:	f240 116b 	movw	r1, #363	; 0x16b
 8003036:	e9d4 2300 	ldrd	r2, r3, [r4]
 800303a:	e9cd 6102 	strd	r6, r1, [sp, #8]
 800303e:	e9cd 2300 	strd	r2, r3, [sp]
 8003042:	4640      	mov	r0, r8
 8003044:	4642      	mov	r2, r8
 8003046:	464b      	mov	r3, r9
 8003048:	4649      	mov	r1, r9
 800304a:	f001 fc01 	bl	8004850 <UnityAssertDoublesWithin>
/Users/Luppy/stm32bluepill-unittest/src/../lib/nano-float/test/test.c:364
x = -0;         r = tanh(x);                  TEST_ASSERT_EQUAL_DOUBLE( -0.000000          , r );
 800304e:	e9c5 8900 	strd	r8, r9, [r5]
 8003052:	e9d5 0100 	ldrd	r0, r1, [r5]
 8003056:	f002 f8af 	bl	80051b8 <tanh>
 800305a:	e9c4 0100 	strd	r0, r1, [r4]
 800305e:	f44f 71b6 	mov.w	r1, #364	; 0x16c
 8003062:	e9d4 2300 	ldrd	r2, r3, [r4]
 8003066:	e9cd 2300 	strd	r2, r3, [sp]
 800306a:	2200      	movs	r2, #0
 800306c:	f04f 4300 	mov.w	r3, #2147483648	; 0x80000000
 8003070:	e9cd 6102 	strd	r6, r1, [sp, #8]
 8003074:	4610      	mov	r0, r2
 8003076:	4619      	mov	r1, r3
 8003078:	f001 fbea 	bl	8004850 <UnityAssertDoublesWithin>
/Users/Luppy/stm32bluepill-unittest/src/../lib/nano-float/test/test.c:365
}
 800307c:	b004      	add	sp, #16
 800307e:	e8bd 8370 	ldmia.w	sp!, {r4, r5, r6, r8, r9, pc}
 8003082:	bf00      	nop
 8003084:	f3af 8000 	nop.w
 8003088:	ead37181 	.word	0xead37181
 800308c:	3ea98e0a 	.word	0x3ea98e0a
 8003090:	615a8deb 	.word	0x615a8deb
 8003094:	3fe85efa 	.word	0x3fe85efa
 8003098:	ead37181 	.word	0xead37181
 800309c:	bea98e0a 	.word	0xbea98e0a
 80030a0:	615a8deb 	.word	0x615a8deb
 80030a4:	bfe85efa 	.word	0xbfe85efa
 80030a8:	20000018 	.word	0x20000018
 80030ac:	3ff00000 	.word	0x3ff00000
 80030b0:	20000000 	.word	0x20000000
 80030b4:	bff00000 	.word	0xbff00000

080030b8 <test_asinh>:
test_asinh():
/Users/Luppy/stm32bluepill-unittest/src/../lib/nano-float/test/test.c:367
void test_asinh(void) {
 80030b8:	e92d 437f 	stmdb	sp!, {r0, r1, r2, r3, r4, r5, r6, r8, r9, lr}
/Users/Luppy/stm32bluepill-unittest/src/../lib/nano-float/test/test.c:368
x = 1;          r = asinh(x);                 TEST_ASSERT_EQUAL_DOUBLE( 0.881374           , r );
 80030bc:	2200      	movs	r2, #0
 80030be:	4d3e      	ldr	r5, [pc, #248]	; (80031b8 <test_asinh+0x100>)
 80030c0:	4b3e      	ldr	r3, [pc, #248]	; (80031bc <test_asinh+0x104>)
 80030c2:	4c3f      	ldr	r4, [pc, #252]	; (80031c0 <test_asinh+0x108>)
 80030c4:	e9c5 2300 	strd	r2, r3, [r5]
 80030c8:	e9d5 0100 	ldrd	r0, r1, [r5]
 80030cc:	f002 f8cc 	bl	8005268 <asinh>
 80030d0:	2600      	movs	r6, #0
 80030d2:	e9c4 0100 	strd	r0, r1, [r4]
 80030d6:	f44f 71b8 	mov.w	r1, #368	; 0x170
 80030da:	e9d4 2300 	ldrd	r2, r3, [r4]
 80030de:	e9cd 6102 	strd	r6, r1, [sp, #8]
 80030e2:	a12d      	add	r1, pc, #180	; (adr r1, 8003198 <test_asinh+0xe0>)
 80030e4:	e9d1 0100 	ldrd	r0, r1, [r1]
 80030e8:	e9cd 2300 	strd	r2, r3, [sp]
 80030ec:	a32c      	add	r3, pc, #176	; (adr r3, 80031a0 <test_asinh+0xe8>)
 80030ee:	e9d3 2300 	ldrd	r2, r3, [r3]
 80030f2:	f001 fbad 	bl	8004850 <UnityAssertDoublesWithin>
/Users/Luppy/stm32bluepill-unittest/src/../lib/nano-float/test/test.c:369
x = -1;         r = asinh(x);                 TEST_ASSERT_EQUAL_DOUBLE( -0.881374          , r );
 80030f6:	2200      	movs	r2, #0
 80030f8:	4b32      	ldr	r3, [pc, #200]	; (80031c4 <test_asinh+0x10c>)
/Users/Luppy/stm32bluepill-unittest/src/../lib/nano-float/test/test.c:370
x = +0;         r = asinh(x);                 TEST_ASSERT_EQUAL_DOUBLE( 0.000000           , r );
 80030fa:	f04f 0800 	mov.w	r8, #0
/Users/Luppy/stm32bluepill-unittest/src/../lib/nano-float/test/test.c:369
x = -1;         r = asinh(x);                 TEST_ASSERT_EQUAL_DOUBLE( -0.881374          , r );
 80030fe:	e9c5 2300 	strd	r2, r3, [r5]
 8003102:	e9d5 0100 	ldrd	r0, r1, [r5]
 8003106:	f002 f8af 	bl	8005268 <asinh>
 800310a:	e9c4 0100 	strd	r0, r1, [r4]
 800310e:	f240 1171 	movw	r1, #369	; 0x171
 8003112:	e9d4 2300 	ldrd	r2, r3, [r4]
/Users/Luppy/stm32bluepill-unittest/src/../lib/nano-float/test/test.c:370
x = +0;         r = asinh(x);                 TEST_ASSERT_EQUAL_DOUBLE( 0.000000           , r );
 8003116:	f04f 0900 	mov.w	r9, #0
/Users/Luppy/stm32bluepill-unittest/src/../lib/nano-float/test/test.c:369
x = -1;         r = asinh(x);                 TEST_ASSERT_EQUAL_DOUBLE( -0.881374          , r );
 800311a:	e9cd 6102 	strd	r6, r1, [sp, #8]
 800311e:	a122      	add	r1, pc, #136	; (adr r1, 80031a8 <test_asinh+0xf0>)
 8003120:	e9d1 0100 	ldrd	r0, r1, [r1]
 8003124:	e9cd 2300 	strd	r2, r3, [sp]
 8003128:	a321      	add	r3, pc, #132	; (adr r3, 80031b0 <test_asinh+0xf8>)
 800312a:	e9d3 2300 	ldrd	r2, r3, [r3]
 800312e:	f001 fb8f 	bl	8004850 <UnityAssertDoublesWithin>
/Users/Luppy/stm32bluepill-unittest/src/../lib/nano-float/test/test.c:370
x = +0;         r = asinh(x);                 TEST_ASSERT_EQUAL_DOUBLE( 0.000000           , r );
 8003132:	e9c5 8900 	strd	r8, r9, [r5]
 8003136:	e9d5 0100 	ldrd	r0, r1, [r5]
 800313a:	f002 f895 	bl	8005268 <asinh>
 800313e:	e9c4 0100 	strd	r0, r1, [r4]
 8003142:	f44f 71b9 	mov.w	r1, #370	; 0x172
 8003146:	e9d4 2300 	ldrd	r2, r3, [r4]
 800314a:	e9cd 6102 	strd	r6, r1, [sp, #8]
 800314e:	e9cd 2300 	strd	r2, r3, [sp]
 8003152:	4640      	mov	r0, r8
 8003154:	4642      	mov	r2, r8
 8003156:	464b      	mov	r3, r9
 8003158:	4649      	mov	r1, r9
 800315a:	f001 fb79 	bl	8004850 <UnityAssertDoublesWithin>
/Users/Luppy/stm32bluepill-unittest/src/../lib/nano-float/test/test.c:371
x = -0;         r = asinh(x);                 TEST_ASSERT_EQUAL_DOUBLE( -0.000000          , r );
 800315e:	e9c5 8900 	strd	r8, r9, [r5]
 8003162:	e9d5 0100 	ldrd	r0, r1, [r5]
 8003166:	f002 f87f 	bl	8005268 <asinh>
 800316a:	e9c4 0100 	strd	r0, r1, [r4]
 800316e:	f240 1173 	movw	r1, #371	; 0x173
 8003172:	e9d4 2300 	ldrd	r2, r3, [r4]
 8003176:	e9cd 2300 	strd	r2, r3, [sp]
 800317a:	2200      	movs	r2, #0
 800317c:	f04f 4300 	mov.w	r3, #2147483648	; 0x80000000
 8003180:	e9cd 6102 	strd	r6, r1, [sp, #8]
 8003184:	4610      	mov	r0, r2
 8003186:	4619      	mov	r1, r3
 8003188:	f001 fb62 	bl	8004850 <UnityAssertDoublesWithin>
/Users/Luppy/stm32bluepill-unittest/src/../lib/nano-float/test/test.c:372
}
 800318c:	b004      	add	sp, #16
 800318e:	e8bd 8370 	ldmia.w	sp!, {r4, r5, r6, r8, r9, pc}
 8003192:	bf00      	nop
 8003194:	f3af 8000 	nop.w
 8003198:	ec3f2b5d 	.word	0xec3f2b5d
 800319c:	3ead92f1 	.word	0x3ead92f1
 80031a0:	3f316e37 	.word	0x3f316e37
 80031a4:	3fec3437 	.word	0x3fec3437
 80031a8:	ec3f2b5d 	.word	0xec3f2b5d
 80031ac:	bead92f1 	.word	0xbead92f1
 80031b0:	3f316e37 	.word	0x3f316e37
 80031b4:	bfec3437 	.word	0xbfec3437
 80031b8:	20000018 	.word	0x20000018
 80031bc:	3ff00000 	.word	0x3ff00000
 80031c0:	20000000 	.word	0x20000000
 80031c4:	bff00000 	.word	0xbff00000

080031c8 <test_acosh>:
test_acosh():
/Users/Luppy/stm32bluepill-unittest/src/../lib/nano-float/test/test.c:374
void test_acosh(void) {
 80031c8:	b57f      	push	{r0, r1, r2, r3, r4, r5, r6, lr}
/Users/Luppy/stm32bluepill-unittest/src/../lib/nano-float/test/test.c:375
x = 1;          r = acosh(x);                 TEST_ASSERT_EQUAL_DOUBLE( 0.000000           , r );
 80031ca:	2200      	movs	r2, #0
 80031cc:	4d1e      	ldr	r5, [pc, #120]	; (8003248 <test_acosh+0x80>)
 80031ce:	4b1f      	ldr	r3, [pc, #124]	; (800324c <test_acosh+0x84>)
 80031d0:	4c1f      	ldr	r4, [pc, #124]	; (8003250 <test_acosh+0x88>)
 80031d2:	e9c5 2300 	strd	r2, r3, [r5]
 80031d6:	e9d5 0100 	ldrd	r0, r1, [r5]
 80031da:	f002 f891 	bl	8005300 <acosh>
 80031de:	e9c4 0100 	strd	r0, r1, [r4]
 80031e2:	2600      	movs	r6, #0
 80031e4:	e9d4 2300 	ldrd	r2, r3, [r4]
 80031e8:	f240 1177 	movw	r1, #375	; 0x177
 80031ec:	e9cd 2300 	strd	r2, r3, [sp]
 80031f0:	2200      	movs	r2, #0
 80031f2:	2300      	movs	r3, #0
 80031f4:	e9cd 6102 	strd	r6, r1, [sp, #8]
 80031f8:	4610      	mov	r0, r2
 80031fa:	4619      	mov	r1, r3
 80031fc:	f001 fb28 	bl	8004850 <UnityAssertDoublesWithin>
/Users/Luppy/stm32bluepill-unittest/src/../lib/nano-float/test/test.c:376
x = 10;         r = acosh(x);                 TEST_ASSERT_EQUAL_DOUBLE( 2.993223           , r );
 8003200:	2200      	movs	r2, #0
 8003202:	4b14      	ldr	r3, [pc, #80]	; (8003254 <test_acosh+0x8c>)
 8003204:	e9c5 2300 	strd	r2, r3, [r5]
 8003208:	e9d5 0100 	ldrd	r0, r1, [r5]
 800320c:	f002 f878 	bl	8005300 <acosh>
 8003210:	e9c4 0100 	strd	r0, r1, [r4]
 8003214:	f44f 71bc 	mov.w	r1, #376	; 0x178
 8003218:	e9d4 2300 	ldrd	r2, r3, [r4]
 800321c:	e9cd 6102 	strd	r6, r1, [sp, #8]
 8003220:	a105      	add	r1, pc, #20	; (adr r1, 8003238 <test_acosh+0x70>)
 8003222:	e9d1 0100 	ldrd	r0, r1, [r1]
 8003226:	e9cd 2300 	strd	r2, r3, [sp]
 800322a:	a305      	add	r3, pc, #20	; (adr r3, 8003240 <test_acosh+0x78>)
 800322c:	e9d3 2300 	ldrd	r2, r3, [r3]
 8003230:	f001 fb0e 	bl	8004850 <UnityAssertDoublesWithin>
/Users/Luppy/stm32bluepill-unittest/src/../lib/nano-float/test/test.c:377
}
 8003234:	b004      	add	sp, #16
 8003236:	bd70      	pop	{r4, r5, r6, pc}
 8003238:	bf1b7e90 	.word	0xbf1b7e90
 800323c:	3ec91be5 	.word	0x3ec91be5
 8003240:	e675147f 	.word	0xe675147f
 8003244:	4007f21e 	.word	0x4007f21e
 8003248:	20000018 	.word	0x20000018
 800324c:	3ff00000 	.word	0x3ff00000
 8003250:	20000000 	.word	0x20000000
 8003254:	40240000 	.word	0x40240000

08003258 <test_atanh>:
test_atanh():
/Users/Luppy/stm32bluepill-unittest/src/../lib/nano-float/test/test.c:379
void test_atanh(void) {
 8003258:	e92d 41ff 	stmdb	sp!, {r0, r1, r2, r3, r4, r5, r6, r7, r8, lr}
/Users/Luppy/stm32bluepill-unittest/src/../lib/nano-float/test/test.c:380
x = 0;          r = atanh(x);                 TEST_ASSERT_EQUAL_DOUBLE( 0.000000           , r );
 800325c:	2600      	movs	r6, #0
 800325e:	2700      	movs	r7, #0
 8003260:	4d2d      	ldr	r5, [pc, #180]	; (8003318 <test_atanh+0xc0>)
 8003262:	4c2e      	ldr	r4, [pc, #184]	; (800331c <test_atanh+0xc4>)
 8003264:	e9c5 6700 	strd	r6, r7, [r5]
 8003268:	e9d5 0100 	ldrd	r0, r1, [r5]
 800326c:	f002 f8a0 	bl	80053b0 <atanh>
 8003270:	f04f 0800 	mov.w	r8, #0
 8003274:	e9c4 0100 	strd	r0, r1, [r4]
 8003278:	f44f 71be 	mov.w	r1, #380	; 0x17c
 800327c:	e9d4 2300 	ldrd	r2, r3, [r4]
 8003280:	e9cd 8102 	strd	r8, r1, [sp, #8]
 8003284:	e9cd 2300 	strd	r2, r3, [sp]
 8003288:	4630      	mov	r0, r6
 800328a:	4632      	mov	r2, r6
 800328c:	463b      	mov	r3, r7
 800328e:	4639      	mov	r1, r7
 8003290:	f001 fade 	bl	8004850 <UnityAssertDoublesWithin>
/Users/Luppy/stm32bluepill-unittest/src/../lib/nano-float/test/test.c:381
x = -0;         r = atanh(x);                 TEST_ASSERT_EQUAL_DOUBLE( -0.000000          , r );
 8003294:	e9c5 6700 	strd	r6, r7, [r5]
 8003298:	e9d5 0100 	ldrd	r0, r1, [r5]
 800329c:	f002 f888 	bl	80053b0 <atanh>
 80032a0:	e9c4 0100 	strd	r0, r1, [r4]
 80032a4:	f240 117d 	movw	r1, #381	; 0x17d
 80032a8:	e9d4 2300 	ldrd	r2, r3, [r4]
 80032ac:	e9cd 2300 	strd	r2, r3, [sp]
 80032b0:	2200      	movs	r2, #0
 80032b2:	f04f 4300 	mov.w	r3, #2147483648	; 0x80000000
 80032b6:	e9cd 8102 	strd	r8, r1, [sp, #8]
 80032ba:	4610      	mov	r0, r2
 80032bc:	4619      	mov	r1, r3
 80032be:	f001 fac7 	bl	8004850 <UnityAssertDoublesWithin>
/Users/Luppy/stm32bluepill-unittest/src/../lib/nano-float/test/test.c:382
x = 0.9;        r = atanh(x);                 TEST_ASSERT_EQUAL_DOUBLE( 1.472219           , r );
 80032c2:	a30f      	add	r3, pc, #60	; (adr r3, 8003300 <test_atanh+0xa8>)
 80032c4:	e9d3 2300 	ldrd	r2, r3, [r3]
 80032c8:	e9c5 2300 	strd	r2, r3, [r5]
 80032cc:	e9d5 0100 	ldrd	r0, r1, [r5]
 80032d0:	f002 f86e 	bl	80053b0 <atanh>
 80032d4:	e9c4 0100 	strd	r0, r1, [r4]
 80032d8:	f44f 71bf 	mov.w	r1, #382	; 0x17e
 80032dc:	e9d4 2300 	ldrd	r2, r3, [r4]
 80032e0:	e9cd 8102 	strd	r8, r1, [sp, #8]
 80032e4:	a108      	add	r1, pc, #32	; (adr r1, 8003308 <test_atanh+0xb0>)
 80032e6:	e9d1 0100 	ldrd	r0, r1, [r1]
 80032ea:	e9cd 2300 	strd	r2, r3, [sp]
 80032ee:	a308      	add	r3, pc, #32	; (adr r3, 8003310 <test_atanh+0xb8>)
 80032f0:	e9d3 2300 	ldrd	r2, r3, [r3]
 80032f4:	f001 faac 	bl	8004850 <UnityAssertDoublesWithin>
/Users/Luppy/stm32bluepill-unittest/src/../lib/nano-float/test/test.c:383
}
 80032f8:	b004      	add	sp, #16
 80032fa:	e8bd 81f0 	ldmia.w	sp!, {r4, r5, r6, r7, r8, pc}
 80032fe:	bf00      	nop
 8003300:	cccccccd 	.word	0xcccccccd
 8003304:	3feccccc 	.word	0x3feccccc
 8003308:	e8bcec9a 	.word	0xe8bcec9a
 800330c:	3eb8b321 	.word	0x3eb8b321
 8003310:	8298cc14 	.word	0x8298cc14
 8003314:	3ff78e35 	.word	0x3ff78e35
 8003318:	20000018 	.word	0x20000018
 800331c:	20000000 	.word	0x20000000

08003320 <test_trunc>:
test_trunc():
/Users/Luppy/stm32bluepill-unittest/src/../lib/nano-float/test/test.c:385
void test_trunc(void) {
 8003320:	e92d 437f 	stmdb	sp!, {r0, r1, r2, r3, r4, r5, r6, r8, r9, lr}
/Users/Luppy/stm32bluepill-unittest/src/../lib/nano-float/test/test.c:386
x = +2.7;      r = trunc(x);    TEST_ASSERT_EQUAL_DOUBLE( +2.0        , r );
 8003324:	a346      	add	r3, pc, #280	; (adr r3, 8003440 <test_trunc+0x120>)
 8003326:	e9d3 2300 	ldrd	r2, r3, [r3]
 800332a:	4d59      	ldr	r5, [pc, #356]	; (8003490 <test_trunc+0x170>)
 800332c:	4c59      	ldr	r4, [pc, #356]	; (8003494 <test_trunc+0x174>)
 800332e:	e9c5 2300 	strd	r2, r3, [r5]
 8003332:	e9d5 0100 	ldrd	r0, r1, [r5]
 8003336:	f002 f89b 	bl	8005470 <trunc>
 800333a:	2600      	movs	r6, #0
 800333c:	e9c4 0100 	strd	r0, r1, [r4]
 8003340:	f44f 71c1 	mov.w	r1, #386	; 0x182
 8003344:	e9d4 2300 	ldrd	r2, r3, [r4]
 8003348:	e9cd 6102 	strd	r6, r1, [sp, #8]
 800334c:	a13e      	add	r1, pc, #248	; (adr r1, 8003448 <test_trunc+0x128>)
 800334e:	e9d1 0100 	ldrd	r0, r1, [r1]
 8003352:	e9cd 2300 	strd	r2, r3, [sp]
 8003356:	2200      	movs	r2, #0
 8003358:	f04f 4380 	mov.w	r3, #1073741824	; 0x40000000
 800335c:	f001 fa78 	bl	8004850 <UnityAssertDoublesWithin>
/Users/Luppy/stm32bluepill-unittest/src/../lib/nano-float/test/test.c:387
x = -2.7;      r = trunc(x);    TEST_ASSERT_EQUAL_DOUBLE( -2.0        , r );
 8003360:	a33b      	add	r3, pc, #236	; (adr r3, 8003450 <test_trunc+0x130>)
 8003362:	e9d3 2300 	ldrd	r2, r3, [r3]
 8003366:	e9c5 2300 	strd	r2, r3, [r5]
 800336a:	e9d5 0100 	ldrd	r0, r1, [r5]
 800336e:	f002 f87f 	bl	8005470 <trunc>
 8003372:	e9c4 0100 	strd	r0, r1, [r4]
 8003376:	f240 1183 	movw	r1, #387	; 0x183
 800337a:	e9d4 2300 	ldrd	r2, r3, [r4]
/Users/Luppy/stm32bluepill-unittest/src/../lib/nano-float/test/test.c:388
x = -0.0;      r = trunc(x);    TEST_ASSERT_EQUAL_DOUBLE( -0.0        , r );
 800337e:	f04f 0800 	mov.w	r8, #0
 8003382:	f04f 4900 	mov.w	r9, #2147483648	; 0x80000000
/Users/Luppy/stm32bluepill-unittest/src/../lib/nano-float/test/test.c:387
x = -2.7;      r = trunc(x);    TEST_ASSERT_EQUAL_DOUBLE( -2.0        , r );
 8003386:	e9cd 2300 	strd	r2, r3, [sp]
 800338a:	e9cd 6102 	strd	r6, r1, [sp, #8]
 800338e:	a132      	add	r1, pc, #200	; (adr r1, 8003458 <test_trunc+0x138>)
 8003390:	e9d1 0100 	ldrd	r0, r1, [r1]
 8003394:	2200      	movs	r2, #0
 8003396:	f04f 4340 	mov.w	r3, #3221225472	; 0xc0000000
 800339a:	f001 fa59 	bl	8004850 <UnityAssertDoublesWithin>
